(lp0
(lp1
I2
aI4
aI6
aI8
aI10
aI15
aI20
aaI250
a(lp2
F1e-05
aF1.5e-05
aF2e-05
aF2.5e-05
aF5e-05
aF7.5e-05
aF0.0001
aF0.000125
aF0.00015
aF0.00025
aF0.0005
aaccollections
defaultdict
p3
(c__builtin__
dict
p4
tp5
Rp6
I2
(dp7
F7.5e-05
I223
sF2e-05
I96
sF0.00015
I250
sF2.5e-05
I98
sF0.00025
I250
sF0.000125
I250
sF5e-05
I134
sF1e-05
I89
sF1.5e-05
I84
sF0.0001
I250
sF0.0005
I250
ssI4
(dp8
F7.5e-05
I224
sF2e-05
I31
sF0.00015
I250
sF2.5e-05
I28
sF0.00025
I250
sF0.000125
I250
sF5e-05
I74
sF1e-05
I38
sF1.5e-05
I30
sF0.0001
I249
sF0.0005
I250
ssI6
(dp9
F7.5e-05
I228
sF2e-05
I7
sF0.00015
I250
sF2.5e-05
I13
sF0.00025
I250
sF0.000125
I250
sF5e-05
I77
sF1e-05
I13
sF1.5e-05
I17
sF0.0001
I250
sF0.0005
I250
ssI8
(dp10
F7.5e-05
I218
sF2e-05
I1
sF0.00015
I250
sF2.5e-05
I3
sF0.00025
I250
sF0.000125
I250
sF5e-05
I65
sF1e-05
I4
sF1.5e-05
I6
sF0.0001
I250
sF0.0005
I250
ssI10
(dp11
F7.5e-05
I221
sF2e-05
I0
sF0.00015
I250
sF2.5e-05
I0
sF0.00025
I250
sF0.000125
I250
sF5e-05
I77
sF1e-05
I0
sF1.5e-05
I0
sF0.0001
I247
sF0.0005
I250
ssI15
(dp12
F7.5e-05
I210
sF2e-05
I1
sF0.00015
I250
sF2.5e-05
I0
sF0.00025
I250
sF0.000125
I250
sF5e-05
I77
sF1e-05
I0
sF1.5e-05
I0
sF0.0001
I249
sF0.0005
I250
ssI20
(dp13
F7.5e-05
I223
sF2e-05
I0
sF0.00015
I250
sF2.5e-05
I0
sF0.00025
I250
sF0.000125
I250
sF5e-05
I75
sF1e-05
I0
sF1.5e-05
I0
sF0.0001
I250
sF0.0005
I250
ssaI4
a.