(lp0
(lp1
I7
aI6
aI5
aI4
aI3
aI2
aa(lp2
I3
aaI25
a(lp3
I5
aaF1e-05
a(lp4
(dp5
S'number_of_BE_flows'
p6
I3
sS'max_possible_delay_e2e'
p7
I20000
sS'measurement_rates'
p8
I5
sS'max_mean_latency'
p9
F22.766
sS'max_max_latency'
p10
F186.8
sS'min_throughput'
p11
F0.02
sS'max_bw_req'
p12
I5
sS'max_nn_latency'
p13
F37.2
sS'max_delay_budget_e2e'
p14
F64.00000000000001
sS'number_of_RT_flows'
p15
I7
sS'min_delay_budget_e2e'
p16
F40.0
sa(dp17
g6
I3
sg7
I20000
sg8
I5
sg9
F22.57
sg10
F177.8
sg11
F0.02
sg12
I5
sg13
F39.8
sg14
F60.000000000000014
sg15
I6
sg16
F40.0
sa(dp18
g6
I3
sg7
I20000
sg8
I5
sg9
F13.044
sg10
F227.0
sg11
F0.02
sg12
I5
sg13
F28.4
sg14
F56.000000000000014
sg15
I5
sg16
F40.0
sa(dp19
g6
I3
sg7
I20000
sg8
I5
sg9
F19.234
sg10
F185.8
sg11
F0.02
sg12
I5
sg13
F34.4
sg14
F52.00000000000001
sg15
I4
sg16
F40.0
sa(dp20
g6
I3
sg7
I20000
sg8
I5
sg9
F15.786000000000001
sg10
F177.2
sg11
F0.02
sg12
I5
sg13
F32.8
sg14
F48.00000000000001
sg15
I3
sg16
F40.0
sa(dp21
g6
I3
sg7
I20000
sg8
I5
sg9
F10.178
sg10
F190.4
sg11
F0.02
sg12
I5
sg13
F33.4
sg14
F44.00000000000001
sg15
I2
sg16
F40.0
sa(dp22
g6
I3
sg7
I20000
sg8
I5
sg9
F17.240000000000002
sg10
F195.4
sg11
F0.02
sg12
I5
sg13
F33.0
sg14
F64.00000000000001
sg15
I7
sg16
F40.0
sa(dp23
g6
I3
sg7
I20000
sg8
I5
sg9
F14.104
sg10
F196.8
sg11
F0.02
sg12
I5
sg13
F39.8
sg14
F60.000000000000014
sg15
I6
sg16
F40.0
sa(dp24
g6
I3
sg7
I20000
sg8
I5
sg9
F15.670000000000002
sg10
F186.6
sg11
F0.02
sg12
I5
sg13
F38.4
sg14
F56.000000000000014
sg15
I5
sg16
F40.0
sa(dp25
g6
I3
sg7
I20000
sg8
I5
sg9
F25.03
sg10
F172.0
sg11
F0.02
sg12
I5
sg13
F43.4
sg14
F52.00000000000001
sg15
I4
sg16
F40.0
sa(dp26
g6
I3
sg7
I20000
sg8
I5
sg9
F16.774
sg10
F185.2
sg11
F0.02
sg12
I5
sg13
F33.8
sg14
F48.00000000000001
sg15
I3
sg16
F40.0
sa(dp27
g6
I3
sg7
I20000
sg8
I5
sg9
F19.201999999999998
sg10
F190.8
sg11
F0.02
sg12
I5
sg13
F35.8
sg14
F44.00000000000001
sg15
I2
sg16
F40.0
sa(dp28
g6
I3
sg7
I20000
sg8
I5
sg9
F16.944
sg10
F179.2
sg11
F0.02
sg12
I5
sg13
F36.4
sg14
F64.00000000000001
sg15
I7
sg16
F40.0
sa(dp29
g6
I3
sg7
I20000
sg8
I5
sg9
F21.240000000000002
sg10
F184.6
sg11
F0.02
sg12
I5
sg13
F38.8
sg14
F60.000000000000014
sg15
I6
sg16
F40.0
sa(dp30
g6
I3
sg7
I20000
sg8
I5
sg9
F14.27
sg10
F178.0
sg11
F0.02
sg12
I5
sg13
F31.6
sg14
F56.000000000000014
sg15
I5
sg16
F40.0
sa(dp31
g6
I3
sg7
I20000
sg8
I5
sg9
F12.862
sg10
F179.4
sg11
F0.02
sg12
I5
sg13
F33.8
sg14
F52.00000000000001
sg15
I4
sg16
F40.0
sa(dp32
g6
I3
sg7
I20000
sg8
I5
sg9
F16.968
sg10
F171.4
sg11
F0.02
sg12
I5
sg13
F29.2
sg14
F48.00000000000001
sg15
I3
sg16
F40.0
sa(dp33
g6
I3
sg7
I20000
sg8
I5
sg9
F12.072
sg10
F176.8
sg11
F0.02
sg12
I5
sg13
F33.0
sg14
F44.00000000000001
sg15
I2
sg16
F40.0
sa(dp34
g6
I3
sg7
I20000
sg8
I5
sg9
F14.723999999999998
sg10
F201.6
sg11
F0.02
sg12
I5
sg13
F31.8
sg14
F64.00000000000001
sg15
I7
sg16
F40.0
sa(dp35
g6
I3
sg7
I20000
sg8
I5
sg9
F19.851999999999997
sg10
F192.0
sg11
F0.02
sg12
I5
sg13
F36.2
sg14
F60.000000000000014
sg15
I6
sg16
F40.0
sa(dp36
g6
I3
sg7
I20000
sg8
I5
sg9
F18.564
sg10
F185.0
sg11
F0.02
sg12
I5
sg13
F36.4
sg14
F56.000000000000014
sg15
I5
sg16
F40.0
sa(dp37
g6
I3
sg7
I20000
sg8
I5
sg9
F18.198
sg10
F183.8
sg11
F0.02
sg12
I5
sg13
F34.0
sg14
F52.00000000000001
sg15
I4
sg16
F40.0
sa(dp38
g6
I3
sg7
I20000
sg8
I5
sg9
F10.406
sg10
F179.2
sg11
F0.02
sg12
I5
sg13
F30.0
sg14
F48.00000000000001
sg15
I3
sg16
F40.0
sa(dp39
g6
I3
sg7
I20000
sg8
I5
sg9
F13.27
sg10
F174.6
sg11
F0.02
sg12
I5
sg13
F29.2
sg14
F44.00000000000001
sg15
I2
sg16
F40.0
sa(dp40
g6
I3
sg7
I20000
sg8
I5
sg9
F15.229999999999999
sg10
F193.2
sg11
F0.02
sg12
I5
sg13
F37.8
sg14
F64.00000000000001
sg15
I7
sg16
F40.0
sa(dp41
g6
I3
sg7
I20000
sg8
I5
sg9
F16.652
sg10
F207.0
sg11
F0.02
sg12
I5
sg13
F38.2
sg14
F60.000000000000014
sg15
I6
sg16
F40.0
sa(dp42
g6
I3
sg7
I20000
sg8
I5
sg9
F16.427999999999997
sg10
F189.8
sg11
F0.02
sg12
I5
sg13
F34.4
sg14
F56.000000000000014
sg15
I5
sg16
F40.0
sa(dp43
g6
I3
sg7
I20000
sg8
I5
sg9
F16.338
sg10
F223.6
sg11
F0.02
sg12
I5
sg13
F33.6
sg14
F52.00000000000001
sg15
I4
sg16
F40.0
sa(dp44
g6
I3
sg7
I20000
sg8
I5
sg9
F20.104
sg10
F174.4
sg11
F0.02
sg12
I5
sg13
F31.4
sg14
F48.00000000000001
sg15
I3
sg16
F40.0
sa(dp45
g6
I3
sg7
I20000
sg8
I5
sg9
F14.224
sg10
F190.6
sg11
F0.02
sg12
I5
sg13
F32.8
sg14
F44.00000000000001
sg15
I2
sg16
F40.0
sa(dp46
g6
I3
sg7
I20000
sg8
I5
sg9
F18.05
sg10
F179.4
sg11
F0.02
sg12
I5
sg13
F47.0
sg14
F64.00000000000001
sg15
I7
sg16
F40.0
sa(dp47
g6
I3
sg7
I20000
sg8
I5
sg9
F16.372000000000003
sg10
F182.0
sg11
F0.02
sg12
I5
sg13
F36.8
sg14
F60.000000000000014
sg15
I6
sg16
F40.0
sa(dp48
g6
I3
sg7
I20000
sg8
I5
sg9
F15.062000000000001
sg10
F188.6
sg11
F0.02
sg12
I5
sg13
F37.0
sg14
F56.000000000000014
sg15
I5
sg16
F40.0
sa(dp49
g6
I3
sg7
I20000
sg8
I5
sg9
F15.3
sg10
F201.4
sg11
F0.02
sg12
I5
sg13
F46.0
sg14
F52.00000000000001
sg15
I4
sg16
F40.0
sa(dp50
g6
I3
sg7
I20000
sg8
I5
sg9
F21.722
sg10
F182.0
sg11
F0.02
sg12
I5
sg13
F42.4
sg14
F48.00000000000001
sg15
I3
sg16
F40.0
sa(dp51
g6
I3
sg7
I20000
sg8
I5
sg9
F17.972
sg10
F175.6
sg11
F0.02
sg12
I5
sg13
F34.2
sg14
F44.00000000000001
sg15
I2
sg16
F40.0
sa(dp52
g6
I3
sg7
I20000
sg8
I5
sg9
F19.080000000000002
sg10
F203.6
sg11
F0.02
sg12
I5
sg13
F39.8
sg14
F64.00000000000001
sg15
I7
sg16
F40.0
sa(dp53
g6
I3
sg7
I20000
sg8
I5
sg9
F17.322000000000003
sg10
F174.8
sg11
F0.02
sg12
I5
sg13
F40.4
sg14
F60.000000000000014
sg15
I6
sg16
F40.0
sa(dp54
g6
I3
sg7
I20000
sg8
I5
sg9
F18.41
sg10
F183.2
sg11
F0.02
sg12
I5
sg13
F33.6
sg14
F56.000000000000014
sg15
I5
sg16
F40.0
sa(dp55
g6
I3
sg7
I20000
sg8
I5
sg9
F21.195999999999998
sg10
F172.0
sg11
F0.02
sg12
I5
sg13
F43.4
sg14
F52.00000000000001
sg15
I4
sg16
F40.0
sa(dp56
g6
I3
sg7
I20000
sg8
I5
sg9
F18.836
sg10
F183.6
sg11
F0.02
sg12
I5
sg13
F34.0
sg14
F48.00000000000001
sg15
I3
sg16
F40.0
sa(dp57
g6
I3
sg7
I20000
sg8
I5
sg9
F22.109999999999996
sg10
F163.6
sg11
F0.02
sg12
I5
sg13
F48.2
sg14
F44.00000000000001
sg15
I2
sg16
F40.0
sa(dp58
g6
I3
sg7
I20000
sg8
I5
sg9
F18.006
sg10
F180.6
sg11
F0.02
sg12
I5
sg13
F36.8
sg14
F64.00000000000001
sg15
I7
sg16
F40.0
sa(dp59
g6
I3
sg7
I20000
sg8
I5
sg9
F21.285999999999994
sg10
F184.6
sg11
F0.02
sg12
I5
sg13
F44.0
sg14
F60.000000000000014
sg15
I6
sg16
F40.0
sa(dp60
g6
I3
sg7
I20000
sg8
I5
sg9
F14.604000000000003
sg10
F175.6
sg11
F0.02
sg12
I5
sg13
F38.0
sg14
F56.000000000000014
sg15
I5
sg16
F40.0
sa(dp61
g6
I3
sg7
I20000
sg8
I5
sg9
F16.81
sg10
F183.2
sg11
F0.02
sg12
I5
sg13
F34.2
sg14
F52.00000000000001
sg15
I4
sg16
F40.0
sa(dp62
g6
I3
sg7
I20000
sg8
I5
sg9
F17.802
sg10
F170.2
sg11
F0.02
sg12
I5
sg13
F36.2
sg14
F48.00000000000001
sg15
I3
sg16
F40.0
sa(dp63
g6
I3
sg7
I20000
sg8
I5
sg9
F9.564
sg10
F175.0
sg11
F0.02
sg12
I5
sg13
F28.0
sg14
F44.00000000000001
sg15
I2
sg16
F40.0
sa(dp64
g6
I3
sg7
I20000
sg8
I5
sg9
F17.544
sg10
F195.0
sg11
F0.02
sg12
I5
sg13
F39.0
sg14
F64.00000000000001
sg15
I7
sg16
F40.0
sa(dp65
g6
I3
sg7
I20000
sg8
I5
sg9
F16.056
sg10
F200.8
sg11
F0.02
sg12
I5
sg13
F42.8
sg14
F60.000000000000014
sg15
I6
sg16
F40.0
sa(dp66
g6
I3
sg7
I20000
sg8
I5
sg9
F18.176
sg10
F187.6
sg11
F0.02
sg12
I5
sg13
F40.8
sg14
F56.000000000000014
sg15
I5
sg16
F40.0
sa(dp67
g6
I3
sg7
I20000
sg8
I5
sg9
F20.372
sg10
F198.0
sg11
F0.02
sg12
I5
sg13
F36.4
sg14
F52.00000000000001
sg15
I4
sg16
F40.0
sa(dp68
g6
I3
sg7
I20000
sg8
I5
sg9
F13.294
sg10
F194.6
sg11
F0.02
sg12
I5
sg13
F30.2
sg14
F48.00000000000001
sg15
I3
sg16
F40.0
sa(dp69
g6
I3
sg7
I20000
sg8
I5
sg9
F9.442
sg10
F187.8
sg11
F0.02
sg12
I5
sg13
F35.0
sg14
F44.00000000000001
sg15
I2
sg16
F40.0
sa(dp70
g6
I3
sg7
I20000
sg8
I5
sg9
F16.863999999999997
sg10
F219.2
sg11
F0.02
sg12
I5
sg13
F46.0
sg14
F64.00000000000001
sg15
I7
sg16
F40.0
sa(dp71
g6
I3
sg7
I20000
sg8
I5
sg9
F24.762
sg10
F201.8
sg11
F0.02
sg12
I5
sg13
F40.0
sg14
F60.000000000000014
sg15
I6
sg16
F40.0
sa(dp72
g6
I3
sg7
I20000
sg8
I5
sg9
F16.124000000000002
sg10
F169.2
sg11
F0.02
sg12
I5
sg13
F38.0
sg14
F56.000000000000014
sg15
I5
sg16
F40.0
sa(dp73
g6
I3
sg7
I20000
sg8
I5
sg9
F17.360000000000003
sg10
F216.4
sg11
F0.02
sg12
I5
sg13
F41.2
sg14
F52.00000000000001
sg15
I4
sg16
F40.0
sa(dp74
g6
I3
sg7
I20000
sg8
I5
sg9
F17.274
sg10
F194.2
sg11
F0.02
sg12
I5
sg13
F45.8
sg14
F48.00000000000001
sg15
I3
sg16
F40.0
sa(dp75
g6
I3
sg7
I20000
sg8
I5
sg9
F9.512
sg10
F187.0
sg11
F0.02
sg12
I5
sg13
F26.0
sg14
F44.00000000000001
sg15
I2
sg16
F40.0
sa(dp76
g6
I3
sg7
I20000
sg8
I5
sg9
F22.779999999999998
sg10
F174.8
sg11
F0.02
sg12
I5
sg13
F40.4
sg14
F64.00000000000001
sg15
I7
sg16
F40.0
sa(dp77
g6
I3
sg7
I20000
sg8
I5
sg9
F11.036000000000001
sg10
F185.8
sg11
F0.02
sg12
I5
sg13
F32.0
sg14
F60.000000000000014
sg15
I6
sg16
F40.0
sa(dp78
g6
I3
sg7
I20000
sg8
I5
sg9
F18.248
sg10
F175.2
sg11
F0.02
sg12
I5
sg13
F37.0
sg14
F56.000000000000014
sg15
I5
sg16
F40.0
sa(dp79
g6
I3
sg7
I20000
sg8
I5
sg9
F20.764
sg10
F196.0
sg11
F0.02
sg12
I5
sg13
F38.4
sg14
F52.00000000000001
sg15
I4
sg16
F40.0
sa(dp80
g6
I3
sg7
I20000
sg8
I5
sg9
F18.724
sg10
F187.4
sg11
F0.02
sg12
I5
sg13
F40.6
sg14
F48.00000000000001
sg15
I3
sg16
F40.0
sa(dp81
g6
I3
sg7
I20000
sg8
I5
sg9
F16.602
sg10
F193.4
sg11
F0.02
sg12
I5
sg13
F32.0
sg14
F44.00000000000001
sg15
I2
sg16
F40.0
sa(dp82
g6
I3
sg7
I20000
sg8
I5
sg9
F13.791999999999998
sg10
F176.0
sg11
F0.02
sg12
I5
sg13
F33.4
sg14
F64.00000000000001
sg15
I7
sg16
F40.0
sa(dp83
g6
I3
sg7
I20000
sg8
I5
sg9
F19.863999999999997
sg10
F220.0
sg11
F0.02
sg12
I5
sg13
F34.0
sg14
F60.000000000000014
sg15
I6
sg16
F40.0
sa(dp84
g6
I3
sg7
I20000
sg8
I5
sg9
F21.42
sg10
F199.6
sg11
F0.02
sg12
I5
sg13
F40.6
sg14
F56.000000000000014
sg15
I5
sg16
F40.0
sa(dp85
g6
I3
sg7
I20000
sg8
I5
sg9
F22.937999999999995
sg10
F182.4
sg11
F0.02
sg12
I5
sg13
F34.4
sg14
F52.00000000000001
sg15
I4
sg16
F40.0
sa(dp86
g6
I3
sg7
I20000
sg8
I5
sg9
F11.260000000000002
sg10
F176.8
sg11
F0.02
sg12
I5
sg13
F30.0
sg14
F48.00000000000001
sg15
I3
sg16
F40.0
sa(dp87
g6
I3
sg7
I20000
sg8
I5
sg9
F9.016
sg10
F187.8
sg11
F0.02
sg12
I5
sg13
F26.8
sg14
F44.00000000000001
sg15
I2
sg16
F40.0
sa(dp88
g6
I3
sg7
I20000
sg8
I5
sg9
F20.064
sg10
F185.0
sg11
F0.02
sg12
I5
sg13
F34.0
sg14
F64.00000000000001
sg15
I7
sg16
F40.0
sa(dp89
g6
I3
sg7
I20000
sg8
I5
sg9
F20.747999999999998
sg10
F189.6
sg11
F0.02
sg12
I5
sg13
F41.2
sg14
F60.000000000000014
sg15
I6
sg16
F40.0
sa(dp90
g6
I3
sg7
I20000
sg8
I5
sg9
F19.576
sg10
F187.6
sg11
F0.02
sg12
I5
sg13
F42.2
sg14
F56.000000000000014
sg15
I5
sg16
F40.0
sa(dp91
g6
I3
sg7
I20000
sg8
I5
sg9
F14.984
sg10
F182.0
sg11
F0.02
sg12
I5
sg13
F32.2
sg14
F52.00000000000001
sg15
I4
sg16
F40.0
sa(dp92
g6
I3
sg7
I20000
sg8
I5
sg9
F10.185999999999998
sg10
F171.4
sg11
F0.05
sg12
I5
sg13
F31.2
sg14
F48.00000000000001
sg15
I3
sg16
F40.0
sa(dp93
g6
I3
sg7
I20000
sg8
I5
sg9
F9.036
sg10
F203.4
sg11
F0.02
sg12
I5
sg13
F21.2
sg14
F44.00000000000001
sg15
I2
sg16
F40.0
sa(dp94
g6
I3
sg7
I20000
sg8
I5
sg9
F22.106
sg10
F233.8
sg11
F0.02
sg12
I5
sg13
F46.6
sg14
F64.00000000000001
sg15
I7
sg16
F40.0
sa(dp95
g6
I3
sg7
I20000
sg8
I5
sg9
F19.291999999999998
sg10
F219.8
sg11
F0.02
sg12
I5
sg13
F36.0
sg14
F60.000000000000014
sg15
I6
sg16
F40.0
sa(dp96
g6
I3
sg7
I20000
sg8
I5
sg9
F12.026
sg10
F182.8
sg11
F0.02
sg12
I5
sg13
F34.8
sg14
F56.000000000000014
sg15
I5
sg16
F40.0
sa(dp97
g6
I3
sg7
I20000
sg8
I5
sg9
F24.654
sg10
F187.2
sg11
F0.02
sg12
I5
sg13
F45.8
sg14
F52.00000000000001
sg15
I4
sg16
F40.0
sa(dp98
g6
I3
sg7
I20000
sg8
I5
sg9
F13.254
sg10
F185.6
sg11
F0.02
sg12
I5
sg13
F26.2
sg14
F48.00000000000001
sg15
I3
sg16
F40.0
sa(dp99
g6
I3
sg7
I20000
sg8
I5
sg9
F22.116
sg10
F144.6
sg11
F0.02
sg12
I5
sg13
F33.8
sg14
F44.00000000000001
sg15
I2
sg16
F40.0
sa(dp100
g6
I3
sg7
I20000
sg8
I5
sg9
F23.380000000000003
sg10
F182.6
sg11
F0.02
sg12
I5
sg13
F45.0
sg14
F64.00000000000001
sg15
I7
sg16
F40.0
sa(dp101
g6
I3
sg7
I20000
sg8
I5
sg9
F16.657999999999998
sg10
F187.6
sg11
F0.02
sg12
I5
sg13
F39.2
sg14
F60.000000000000014
sg15
I6
sg16
F40.0
sa(dp102
g6
I3
sg7
I20000
sg8
I5
sg9
F17.79
sg10
F177.6
sg11
F0.02
sg12
I5
sg13
F40.2
sg14
F56.000000000000014
sg15
I5
sg16
F40.0
sa(dp103
g6
I3
sg7
I20000
sg8
I5
sg9
F20.052
sg10
F178.0
sg11
F0.02
sg12
I5
sg13
F32.2
sg14
F52.00000000000001
sg15
I4
sg16
F40.0
sa(dp104
g6
I3
sg7
I20000
sg8
I5
sg9
F8.815999999999999
sg10
F189.8
sg11
F0.02
sg12
I5
sg13
F23.2
sg14
F48.00000000000001
sg15
I3
sg16
F40.0
sa(dp105
g6
I3
sg7
I20000
sg8
I5
sg9
F26.627999999999997
sg10
F177.4
sg11
F0.02
sg12
I5
sg13
F41.8
sg14
F44.00000000000001
sg15
I2
sg16
F40.0
sa(dp106
g6
I3
sg7
I20000
sg8
I5
sg9
F23.588
sg10
F176.2
sg11
F0.02
sg12
I5
sg13
F39.6
sg14
F64.00000000000001
sg15
I7
sg16
F40.0
sa(dp107
g6
I3
sg7
I20000
sg8
I5
sg9
F15.214000000000002
sg10
F180.0
sg11
F0.02
sg12
I5
sg13
F35.4
sg14
F60.000000000000014
sg15
I6
sg16
F40.0
sa(dp108
g6
I3
sg7
I20000
sg8
I5
sg9
F14.553999999999998
sg10
F192.2
sg11
F0.02
sg12
I5
sg13
F39.8
sg14
F56.000000000000014
sg15
I5
sg16
F40.0
sa(dp109
g6
I3
sg7
I20000
sg8
I5
sg9
F17.18
sg10
F183.6
sg11
F0.02
sg12
I5
sg13
F38.6
sg14
F52.00000000000001
sg15
I4
sg16
F40.0
sa(dp110
g6
I3
sg7
I20000
sg8
I5
sg9
F12.998000000000001
sg10
F167.2
sg11
F0.02
sg12
I5
sg13
F35.2
sg14
F48.00000000000001
sg15
I3
sg16
F40.0
sa(dp111
g6
I3
sg7
I20000
sg8
I5
sg9
F9.058
sg10
F188.4
sg11
F0.02
sg12
I5
sg13
F30.2
sg14
F44.00000000000001
sg15
I2
sg16
F40.0
sa(dp112
g6
I3
sg7
I20000
sg8
I5
sg9
F22.796
sg10
F185.0
sg11
F0.02
sg12
I5
sg13
F39.8
sg14
F64.00000000000001
sg15
I7
sg16
F40.0
sa(dp113
g6
I3
sg7
I20000
sg8
I5
sg9
F15.13
sg10
F209.4
sg11
F0.02
sg12
I5
sg13
F27.0
sg14
F60.000000000000014
sg15
I6
sg16
F40.0
sa(dp114
g6
I3
sg7
I20000
sg8
I5
sg9
F19.974
sg10
F171.6
sg11
F0.02
sg12
I5
sg13
F40.8
sg14
F56.000000000000014
sg15
I5
sg16
F40.0
sa(dp115
g6
I3
sg7
I20000
sg8
I5
sg9
F20.913999999999998
sg10
F183.8
sg11
F0.02
sg12
I5
sg13
F41.2
sg14
F52.00000000000001
sg15
I4
sg16
F40.0
sa(dp116
g6
I3
sg7
I20000
sg8
I5
sg9
F12.092000000000002
sg10
F197.2
sg11
F0.02
sg12
I5
sg13
F32.2
sg14
F48.00000000000001
sg15
I3
sg16
F40.0
sa(dp117
g6
I3
sg7
I20000
sg8
I5
sg9
F23.094
sg10
F175.2
sg11
F0.02
sg12
I5
sg13
F38.8
sg14
F44.00000000000001
sg15
I2
sg16
F40.0
sa(dp118
g6
I3
sg7
I20000
sg8
I5
sg9
F18.910000000000004
sg10
F182.0
sg11
F0.02
sg12
I5
sg13
F42.0
sg14
F64.00000000000001
sg15
I7
sg16
F40.0
sa(dp119
g6
I3
sg7
I20000
sg8
I5
sg9
F16.054000000000002
sg10
F191.6
sg11
F0.02
sg12
I5
sg13
F34.2
sg14
F60.000000000000014
sg15
I6
sg16
F40.0
sa(dp120
g6
I3
sg7
I20000
sg8
I5
sg9
F17.003999999999998
sg10
F173.8
sg11
F0.02
sg12
I5
sg13
F40.6
sg14
F56.000000000000014
sg15
I5
sg16
F40.0
sa(dp121
g6
I3
sg7
I20000
sg8
I5
sg9
F18.616000000000003
sg10
F180.6
sg11
F0.02
sg12
I5
sg13
F42.8
sg14
F52.00000000000001
sg15
I4
sg16
F40.0
sa(dp122
g6
I3
sg7
I20000
sg8
I5
sg9
F16.206
sg10
F178.8
sg11
F0.02
sg12
I5
sg13
F36.0
sg14
F48.00000000000001
sg15
I3
sg16
F40.0
sa(dp123
g6
I3
sg7
I20000
sg8
I5
sg9
F16.556000000000004
sg10
F181.0
sg11
F0.02
sg12
I5
sg13
F36.2
sg14
F44.00000000000001
sg15
I2
sg16
F40.0
sa(dp124
g6
I3
sg7
I20000
sg8
I5
sg9
F16.458000000000002
sg10
F177.6
sg11
F0.02
sg12
I5
sg13
F39.8
sg14
F64.00000000000001
sg15
I7
sg16
F40.0
sa(dp125
g6
I3
sg7
I20000
sg8
I5
sg9
F18.754
sg10
F179.2
sg11
F0.02
sg12
I5
sg13
F35.6
sg14
F60.000000000000014
sg15
I6
sg16
F40.0
sa(dp126
g6
I3
sg7
I20000
sg8
I5
sg9
F19.116
sg10
F175.0
sg11
F0.02
sg12
I5
sg13
F39.2
sg14
F56.000000000000014
sg15
I5
sg16
F40.0
sa(dp127
g6
I3
sg7
I20000
sg8
I5
sg9
F20.194
sg10
F163.2
sg11
F0.02
sg12
I5
sg13
F37.6
sg14
F52.00000000000001
sg15
I4
sg16
F40.0
sa(dp128
g6
I3
sg7
I20000
sg8
I5
sg9
F13.815999999999999
sg10
F178.8
sg11
F0.02
sg12
I5
sg13
F38.8
sg14
F48.00000000000001
sg15
I3
sg16
F40.0
sa(dp129
g6
I3
sg7
I20000
sg8
I5
sg9
F12.244
sg10
F157.2
sg11
F0.02
sg12
I5
sg13
F28.4
sg14
F44.00000000000001
sg15
I2
sg16
F40.0
sa(dp130
g6
I3
sg7
I20000
sg8
I5
sg9
F23.094
sg10
F194.0
sg11
F0.02
sg12
I5
sg13
F52.6
sg14
F64.00000000000001
sg15
I7
sg16
F40.0
sa(dp131
g6
I3
sg7
I20000
sg8
I5
sg9
F19.734
sg10
F188.0
sg11
F0.02
sg12
I5
sg13
F35.4
sg14
F60.000000000000014
sg15
I6
sg16
F40.0
sa(dp132
g6
I3
sg7
I20000
sg8
I5
sg9
F17.476
sg10
F181.8
sg11
F0.02
sg12
I5
sg13
F36.0
sg14
F56.000000000000014
sg15
I5
sg16
F40.0
sa(dp133
g6
I3
sg7
I20000
sg8
I5
sg9
F12.714
sg10
F177.4
sg11
F0.02
sg12
I5
sg13
F33.4
sg14
F52.00000000000001
sg15
I4
sg16
F40.0
sa(dp134
g6
I3
sg7
I20000
sg8
I5
sg9
F25.03
sg10
F171.4
sg11
F0.02
sg12
I5
sg13
F43.4
sg14
F48.00000000000001
sg15
I3
sg16
F40.0
sa(dp135
g6
I3
sg7
I20000
sg8
I5
sg9
F9.209999999999999
sg10
F214.6
sg11
F0.02
sg12
I5
sg13
F24.8
sg14
F44.00000000000001
sg15
I2
sg16
F40.0
sa(dp136
g6
I3
sg7
I20000
sg8
I5
sg9
F20.842000000000002
sg10
F187.4
sg11
F0.02
sg12
I5
sg13
F35.6
sg14
F64.00000000000001
sg15
I7
sg16
F40.0
sa(dp137
g6
I3
sg7
I20000
sg8
I5
sg9
F18.706
sg10
F183.0
sg11
F0.02
sg12
I5
sg13
F42.6
sg14
F60.000000000000014
sg15
I6
sg16
F40.0
sa(dp138
g6
I3
sg7
I20000
sg8
I5
sg9
F20.089999999999996
sg10
F202.2
sg11
F0.02
sg12
I5
sg13
F35.8
sg14
F56.000000000000014
sg15
I5
sg16
F40.0
sa(dp139
g6
I3
sg7
I20000
sg8
I5
sg9
F15.4
sg10
F191.2
sg11
F0.02
sg12
I5
sg13
F33.8
sg14
F52.00000000000001
sg15
I4
sg16
F40.0
sa(dp140
g6
I3
sg7
I20000
sg8
I5
sg9
F20.688
sg10
F179.6
sg11
F0.02
sg12
I5
sg13
F40.4
sg14
F48.00000000000001
sg15
I3
sg16
F40.0
sa(dp141
g6
I3
sg7
I20000
sg8
I5
sg9
F21.756
sg10
F185.2
sg11
F0.02
sg12
I5
sg13
F48.8
sg14
F44.00000000000001
sg15
I2
sg16
F40.0
sa(dp142
g6
I3
sg7
I20000
sg8
I5
sg9
F18.237999999999996
sg10
F193.0
sg11
F0.02
sg12
I5
sg13
F38.0
sg14
F64.00000000000001
sg15
I7
sg16
F40.0
sa(dp143
g6
I3
sg7
I20000
sg8
I5
sg9
F18.94
sg10
F196.6
sg11
F0.02
sg12
I5
sg13
F32.4
sg14
F60.000000000000014
sg15
I6
sg16
F40.0
sa(dp144
g6
I3
sg7
I20000
sg8
I5
sg9
F9.432
sg10
F185.0
sg11
F0.02
sg12
I5
sg13
F26.6
sg14
F56.000000000000014
sg15
I5
sg16
F40.0
sa(dp145
g6
I3
sg7
I20000
sg8
I5
sg9
F19.470000000000002
sg10
F187.6
sg11
F0.02
sg12
I5
sg13
F36.2
sg14
F52.00000000000001
sg15
I4
sg16
F40.0
sa(dp146
g6
I3
sg7
I20000
sg8
I5
sg9
F21.785999999999998
sg10
F177.8
sg11
F0.02
sg12
I5
sg13
F40.8
sg14
F48.00000000000001
sg15
I3
sg16
F40.0
sa(dp147
g6
I3
sg7
I20000
sg8
I5
sg9
F19.66
sg10
F225.4
sg11
F0.02
sg12
I5
sg13
F36.0
sg14
F44.00000000000001
sg15
I2
sg16
F40.0
sa(dp148
g6
I3
sg7
I20000
sg8
I5
sg9
F15.758000000000001
sg10
F202.8
sg11
F0.02
sg12
I5
sg13
F40.2
sg14
F64.00000000000001
sg15
I7
sg16
F40.0
sa(dp149
g6
I3
sg7
I20000
sg8
I5
sg9
F19.976000000000003
sg10
F206.2
sg11
F0.02
sg12
I5
sg13
F33.2
sg14
F60.000000000000014
sg15
I6
sg16
F40.0
sa(dp150
g6
I3
sg7
I20000
sg8
I5
sg9
F17.738
sg10
F188.6
sg11
F0.02
sg12
I5
sg13
F42.2
sg14
F56.000000000000014
sg15
I5
sg16
F40.0
sa(dp151
g6
I3
sg7
I20000
sg8
I5
sg9
F25.008000000000003
sg10
F184.0
sg11
F0.02
sg12
I5
sg13
F46.4
sg14
F52.00000000000001
sg15
I4
sg16
F40.0
sa(dp152
g6
I3
sg7
I20000
sg8
I5
sg9
F14.158000000000001
sg10
F213.6
sg11
F0.02
sg12
I5
sg13
F32.0
sg14
F48.00000000000001
sg15
I3
sg16
F40.0
sa(dp153
g6
I3
sg7
I20000
sg8
I5
sg9
F9.236
sg10
F181.6
sg11
F0.02
sg12
I5
sg13
F29.4
sg14
F44.00000000000001
sg15
I2
sg16
F40.0
sa(dp154
g6
I3
sg7
I20000
sg8
I5
sg9
F17.006
sg10
F183.8
sg11
F0.02
sg12
I5
sg13
F41.8
sg14
F64.00000000000001
sg15
I7
sg16
F40.0
sa(dp155
g6
I3
sg7
I20000
sg8
I5
sg9
F18.677999999999997
sg10
F172.0
sg11
F0.02
sg12
I5
sg13
F39.8
sg14
F60.000000000000014
sg15
I6
sg16
F40.0
sa(dp156
g6
I3
sg7
I20000
sg8
I5
sg9
F20.142
sg10
F171.8
sg11
F0.02
sg12
I5
sg13
F36.4
sg14
F56.000000000000014
sg15
I5
sg16
F40.0
sa(dp157
g6
I3
sg7
I20000
sg8
I5
sg9
F11.856
sg10
F175.6
sg11
F0.02
sg12
I5
sg13
F35.2
sg14
F52.00000000000001
sg15
I4
sg16
F40.0
sa(dp158
g6
I3
sg7
I20000
sg8
I5
sg9
F18.046
sg10
F181.6
sg11
F0.02
sg12
I5
sg13
F32.0
sg14
F48.00000000000001
sg15
I3
sg16
F40.0
sa(dp159
g6
I3
sg7
I20000
sg8
I5
sg9
F12.004000000000001
sg10
F174.0
sg11
F0.02
sg12
I5
sg13
F28.6
sg14
F44.00000000000001
sg15
I2
sg16
F40.0
sa(dp160
g6
I3
sg7
I20000
sg8
I5
sg9
F18.868000000000002
sg10
F178.4
sg11
F0.02
sg12
I5
sg13
F46.6
sg14
F64.00000000000001
sg15
I7
sg16
F40.0
sa(dp161
g6
I3
sg7
I20000
sg8
I5
sg9
F21.619999999999997
sg10
F201.6
sg11
F0.02
sg12
I5
sg13
F43.0
sg14
F60.000000000000014
sg15
I6
sg16
F40.0
sa(dp162
g6
I3
sg7
I20000
sg8
I5
sg9
F11.716000000000001
sg10
F176.8
sg11
F0.02
sg12
I5
sg13
F30.2
sg14
F56.000000000000014
sg15
I5
sg16
F40.0
sa(dp163
g6
I3
sg7
I20000
sg8
I5
sg9
F10.617999999999999
sg10
F182.4
sg11
F0.02
sg12
I5
sg13
F29.8
sg14
F52.00000000000001
sg15
I4
sg16
F40.0
sa(dp164
g6
I3
sg7
I20000
sg8
I5
sg9
F11.502
sg10
F174.4
sg11
F0.02
sg12
I5
sg13
F26.0
sg14
F48.00000000000001
sg15
I3
sg16
F40.0
sa(dp165
g6
I3
sg7
I20000
sg8
I5
sg9
F11.234
sg10
F179.6
sg11
F0.05
sg12
I5
sg13
F30.0
sg14
F44.00000000000001
sg15
I2
sg16
F40.0
saa.