(lp0
(lp1
I7
aI6
aI5
aI4
aI3
aI2
aa(lp2
I3
aI0
aaI25
a(lp3
I10
aaF0.0001
a(lp4
(dp5
S'number_of_BE_flows'
p6
I3
sS'max_possible_delay_e2e'
p7
I500000
sS'measurement_rates'
p8
I10
sS'max_mean_latency'
p9
F4.35
sS'max_max_latency'
p10
F806.0
sS'min_throughput'
p11
F-1.0
sS'max_bw_req'
p12
I10
sS'max_nn_latency'
p13
F8.0
sS'max_delay_budget_e2e'
p14
F640.0
sS'number_of_RT_flows'
p15
I7
sS'min_delay_budget_e2e'
p16
F400.0
sa(dp17
g6
I0
sg7
I500000
sg8
I10
sg9
F4.18
sg10
F806.0
sg11
F-1.0
sg12
I10
sg13
F9.0
sg14
F640.0
sg15
I7
sg16
F400.0
sa(dp18
g6
I3
sg7
I500000
sg8
I10
sg9
F3.04
sg10
F767.0
sg11
F-1.0
sg12
I10
sg13
F16.0
sg14
F600.0
sg15
I6
sg16
F400.0
sa(dp19
g6
I0
sg7
I500000
sg8
I10
sg9
F4.25
sg10
F747.0
sg11
F-1.0
sg12
I10
sg13
F8.0
sg14
F600.0
sg15
I6
sg16
F400.0
sa(dp20
g6
I3
sg7
I500000
sg8
I10
sg9
F4.26
sg10
F775.0
sg11
F-1.0
sg12
I10
sg13
F17.0
sg14
F560.0000000000001
sg15
I5
sg16
F400.0
sa(dp21
g6
I0
sg7
I500000
sg8
I10
sg9
F4.3
sg10
F859.0
sg11
F-1.0
sg12
I10
sg13
F9.0
sg14
F560.0000000000001
sg15
I5
sg16
F400.0
sa(dp22
g6
I3
sg7
I500000
sg8
I10
sg9
F4.25
sg10
F715.0
sg11
F-1.0
sg12
I10
sg13
F17.0
sg14
F520.0000000000001
sg15
I4
sg16
F400.0
sa(dp23
g6
I0
sg7
I500000
sg8
I10
sg9
F4.06
sg10
F809.0
sg11
F-1.0
sg12
I10
sg13
F17.0
sg14
F520.0000000000001
sg15
I4
sg16
F400.0
sa(dp24
g6
I3
sg7
I500000
sg8
I10
sg9
F4.09
sg10
F475.0
sg11
F-1.0
sg12
I10
sg13
F9.0
sg14
F480.0
sg15
I3
sg16
F400.0
sa(dp25
g6
I0
sg7
I500000
sg8
I10
sg9
F4.24
sg10
F688.0
sg11
F0.6
sg12
I10
sg13
F16.0
sg14
F480.0
sg15
I3
sg16
F400.0
sa(dp26
g6
I3
sg7
I500000
sg8
I10
sg9
F4.21
sg10
F703.0
sg11
F-1.0
sg12
I10
sg13
F29.0
sg14
F440.0
sg15
I2
sg16
F400.0
sa(dp27
g6
I0
sg7
I500000
sg8
I10
sg9
F4.58
sg10
F822.0
sg11
F0.4
sg12
I10
sg13
F9.0
sg14
F440.0
sg15
I2
sg16
F400.0
sa(dp28
g6
I3
sg7
I500000
sg8
I10
sg9
F3.69
sg10
F658.0
sg11
F-1.0
sg12
I10
sg13
F17.0
sg14
F640.0
sg15
I7
sg16
F400.0
sa(dp29
g6
I0
sg7
I500000
sg8
I10
sg9
F3.09
sg10
F669.0
sg11
F-1.0
sg12
I10
sg13
F9.0
sg14
F640.0
sg15
I7
sg16
F400.0
sa(dp30
g6
I3
sg7
I500000
sg8
I10
sg9
F4.53
sg10
F690.0
sg11
F-1.0
sg12
I10
sg13
F17.0
sg14
F600.0
sg15
I6
sg16
F400.0
sa(dp31
g6
I0
sg7
I500000
sg8
I10
sg9
F6.33
sg10
F927.0
sg11
F0.3
sg12
I10
sg13
F39.0
sg14
F600.0
sg15
I6
sg16
F400.0
sa(dp32
g6
I3
sg7
I500000
sg8
I10
sg9
F4.26
sg10
F768.0
sg11
F-1.0
sg12
I10
sg13
F17.0
sg14
F560.0000000000001
sg15
I5
sg16
F400.0
sa(dp33
g6
I0
sg7
I500000
sg8
I10
sg9
F6.15
sg10
F860.0
sg11
F0.2
sg12
I10
sg13
F39.0
sg14
F560.0000000000001
sg15
I5
sg16
F400.0
sa(dp34
g6
I3
sg7
I500000
sg8
I10
sg9
F4.81
sg10
F979.0
sg11
F-1.0
sg12
I10
sg13
F31.0
sg14
F520.0000000000001
sg15
I4
sg16
F400.0
sa(dp35
g6
I0
sg7
I500000
sg8
I10
sg9
F3.18
sg10
F719.0
sg11
F0.7
sg12
I10
sg13
F9.0
sg14
F520.0000000000001
sg15
I4
sg16
F400.0
sa(dp36
g6
I3
sg7
I500000
sg8
I10
sg9
F3.66
sg10
F537.0
sg11
F-1.0
sg12
I10
sg13
F17.0
sg14
F480.0
sg15
I3
sg16
F400.0
sa(dp37
g6
I0
sg7
I500000
sg8
I10
sg9
F4.16
sg10
F631.0
sg11
F0.2
sg12
I10
sg13
F9.0
sg14
F480.0
sg15
I3
sg16
F400.0
sa(dp38
g6
I3
sg7
I500000
sg8
I10
sg9
F4.42
sg10
F754.0
sg11
F-1.0
sg12
I10
sg13
F18.0
sg14
F440.0
sg15
I2
sg16
F400.0
sa(dp39
g6
I0
sg7
I500000
sg8
I10
sg9
F4.2
sg10
F712.0
sg11
F0.3
sg12
I10
sg13
F8.0
sg14
F440.0
sg15
I2
sg16
F400.0
sa(dp40
g6
I3
sg7
I500000
sg8
I10
sg9
F4.41
sg10
F941.0
sg11
F-1.0
sg12
I10
sg13
F17.0
sg14
F640.0
sg15
I7
sg16
F400.0
sa(dp41
g6
I0
sg7
I500000
sg8
I10
sg9
F4.45
sg10
F833.0
sg11
F-1.0
sg12
I10
sg13
F17.0
sg14
F640.0
sg15
I7
sg16
F400.0
sa(dp42
g6
I3
sg7
I500000
sg8
I10
sg9
F4.53
sg10
F956.0
sg11
F-1.0
sg12
I10
sg13
F17.0
sg14
F600.0
sg15
I6
sg16
F400.0
sa(dp43
g6
I0
sg7
I500000
sg8
I10
sg9
F4.14
sg10
F739.0
sg11
F-1.0
sg12
I10
sg13
F9.0
sg14
F600.0
sg15
I6
sg16
F400.0
sa(dp44
g6
I3
sg7
I500000
sg8
I10
sg9
F4.17
sg10
F541.0
sg11
F-1.0
sg12
I10
sg13
F20.0
sg14
F560.0000000000001
sg15
I5
sg16
F400.0
sa(dp45
g6
I0
sg7
I500000
sg8
I10
sg9
F4.22
sg10
F904.0
sg11
F0.1
sg12
I10
sg13
F9.0
sg14
F560.0000000000001
sg15
I5
sg16
F400.0
sa(dp46
g6
I3
sg7
I500000
sg8
I10
sg9
F6.07
sg10
F857.0
sg11
F-1.0
sg12
I10
sg13
F38.0
sg14
F520.0000000000001
sg15
I4
sg16
F400.0
sa(dp47
g6
I0
sg7
I500000
sg8
I10
sg9
F4.38
sg10
F712.0
sg11
F-1.0
sg12
I10
sg13
F16.0
sg14
F520.0000000000001
sg15
I4
sg16
F400.0
sa(dp48
g6
I3
sg7
I500000
sg8
I10
sg9
F2.92
sg10
F479.0
sg11
F-1.0
sg12
I10
sg13
F9.0
sg14
F480.0
sg15
I3
sg16
F400.0
sa(dp49
g6
I0
sg7
I500000
sg8
I10
sg9
F4.19
sg10
F711.0
sg11
F0.2
sg12
I10
sg13
F16.0
sg14
F480.0
sg15
I3
sg16
F400.0
sa(dp50
g6
I3
sg7
I500000
sg8
I10
sg9
F4.39
sg10
F787.0
sg11
F0.5
sg12
I10
sg13
F26.0
sg14
F440.0
sg15
I2
sg16
F400.0
sa(dp51
g6
I0
sg7
I500000
sg8
I10
sg9
F4.09
sg10
F657.0
sg11
F0.8
sg12
I10
sg13
F16.0
sg14
F440.0
sg15
I2
sg16
F400.0
sa(dp52
g6
I3
sg7
I500000
sg8
I10
sg9
F3.91
sg10
F814.0
sg11
F-1.0
sg12
I10
sg13
F9.0
sg14
F640.0
sg15
I7
sg16
F400.0
sa(dp53
g6
I0
sg7
I500000
sg8
I10
sg9
F4.23
sg10
F755.0
sg11
F-1.0
sg12
I10
sg13
F37.0
sg14
F640.0
sg15
I7
sg16
F400.0
sa(dp54
g6
I3
sg7
I500000
sg8
I10
sg9
F4.45
sg10
F985.0
sg11
F-1.0
sg12
I10
sg13
F29.0
sg14
F600.0
sg15
I6
sg16
F400.0
sa(dp55
g6
I0
sg7
I500000
sg8
I10
sg9
F4.29
sg10
F724.0
sg11
F-1.0
sg12
I10
sg13
F9.0
sg14
F600.0
sg15
I6
sg16
F400.0
sa(dp56
g6
I3
sg7
I500000
sg8
I10
sg9
F4.17
sg10
F926.0
sg11
F-1.0
sg12
I10
sg13
F16.0
sg14
F560.0000000000001
sg15
I5
sg16
F400.0
sa(dp57
g6
I0
sg7
I500000
sg8
I10
sg9
F4.43
sg10
F954.0
sg11
F-1.0
sg12
I10
sg13
F9.0
sg14
F560.0000000000001
sg15
I5
sg16
F400.0
sa(dp58
g6
I3
sg7
I500000
sg8
I10
sg9
F3.98
sg10
F838.0
sg11
F-1.0
sg12
I10
sg13
F9.0
sg14
F520.0000000000001
sg15
I4
sg16
F400.0
sa(dp59
g6
I0
sg7
I500000
sg8
I10
sg9
F4.26
sg10
F785.0
sg11
F-1.0
sg12
I10
sg13
F16.0
sg14
F520.0000000000001
sg15
I4
sg16
F400.0
sa(dp60
g6
I3
sg7
I500000
sg8
I10
sg9
F2.59
sg10
F558.0
sg11
F-1.0
sg12
I10
sg13
F8.0
sg14
F480.0
sg15
I3
sg16
F400.0
sa(dp61
g6
I0
sg7
I500000
sg8
I10
sg9
F4.16
sg10
F684.0
sg11
F0.4
sg12
I10
sg13
F17.0
sg14
F480.0
sg15
I3
sg16
F400.0
sa(dp62
g6
I3
sg7
I500000
sg8
I10
sg9
F-1.0
sg10
F-1.0
sg11
F-1.0
sg12
I10
sg13
F-1.0
sg14
F440.0
sg15
I2
sg16
F400.0
sa(dp63
g6
I0
sg7
I500000
sg8
I10
sg9
F4.26
sg10
F718.0
sg11
F0.4
sg12
I10
sg13
F16.0
sg14
F440.0
sg15
I2
sg16
F400.0
sa(dp64
g6
I3
sg7
I500000
sg8
I10
sg9
F4.45
sg10
F946.0
sg11
F-1.0
sg12
I10
sg13
F18.0
sg14
F640.0
sg15
I7
sg16
F400.0
sa(dp65
g6
I0
sg7
I500000
sg8
I10
sg9
F4.46
sg10
F920.0
sg11
F-1.0
sg12
I10
sg13
F18.0
sg14
F640.0
sg15
I7
sg16
F400.0
sa(dp66
g6
I3
sg7
I500000
sg8
I10
sg9
F4.44
sg10
F828.0
sg11
F-1.0
sg12
I10
sg13
F18.0
sg14
F600.0
sg15
I6
sg16
F400.0
sa(dp67
g6
I0
sg7
I500000
sg8
I10
sg9
F4.47
sg10
F727.0
sg11
F-1.0
sg12
I10
sg13
F9.0
sg14
F600.0
sg15
I6
sg16
F400.0
sa(dp68
g6
I3
sg7
I500000
sg8
I10
sg9
F4.11
sg10
F677.0
sg11
F-1.0
sg12
I10
sg13
F17.0
sg14
F560.0000000000001
sg15
I5
sg16
F400.0
sa(dp69
g6
I0
sg7
I500000
sg8
I10
sg9
F3.49
sg10
F791.0
sg11
F-1.0
sg12
I10
sg13
F9.0
sg14
F560.0000000000001
sg15
I5
sg16
F400.0
sa(dp70
g6
I3
sg7
I500000
sg8
I10
sg9
F4.19
sg10
F566.0
sg11
F-1.0
sg12
I10
sg13
F16.0
sg14
F520.0000000000001
sg15
I4
sg16
F400.0
sa(dp71
g6
I0
sg7
I500000
sg8
I10
sg9
F4.43
sg10
F886.0
sg11
F-1.0
sg12
I10
sg13
F9.0
sg14
F520.0000000000001
sg15
I4
sg16
F400.0
sa(dp72
g6
I3
sg7
I500000
sg8
I10
sg9
F4.18
sg10
F513.0
sg11
F-1.0
sg12
I10
sg13
F16.0
sg14
F480.0
sg15
I3
sg16
F400.0
sa(dp73
g6
I0
sg7
I500000
sg8
I10
sg9
F4.63
sg10
F901.0
sg11
F0.1
sg12
I10
sg13
F17.0
sg14
F480.0
sg15
I3
sg16
F400.0
sa(dp74
g6
I3
sg7
I500000
sg8
I10
sg9
F-1.0
sg10
F-1.0
sg11
F-1.0
sg12
I10
sg13
F-1.0
sg14
F440.0
sg15
I2
sg16
F400.0
sa(dp75
g6
I0
sg7
I500000
sg8
I10
sg9
F3.87
sg10
F905.0
sg11
F0.1
sg12
I10
sg13
F15.0
sg14
F440.0
sg15
I2
sg16
F400.0
sa(dp76
g6
I3
sg7
I500000
sg8
I10
sg9
F4.32
sg10
F632.0
sg11
F-1.0
sg12
I10
sg13
F17.0
sg14
F640.0
sg15
I7
sg16
F400.0
sa(dp77
g6
I0
sg7
I500000
sg8
I10
sg9
F4.43
sg10
F784.0
sg11
F-1.0
sg12
I10
sg13
F17.0
sg14
F640.0
sg15
I7
sg16
F400.0
sa(dp78
g6
I3
sg7
I500000
sg8
I10
sg9
F4.18
sg10
F623.0
sg11
F-1.0
sg12
I10
sg13
F16.0
sg14
F600.0
sg15
I6
sg16
F400.0
sa(dp79
g6
I0
sg7
I500000
sg8
I10
sg9
F5.11
sg10
F780.0
sg11
F-1.0
sg12
I10
sg13
F37.0
sg14
F600.0
sg15
I6
sg16
F400.0
sa(dp80
g6
I3
sg7
I500000
sg8
I10
sg9
F3.95
sg10
F763.0
sg11
F-1.0
sg12
I10
sg13
F17.0
sg14
F560.0000000000001
sg15
I5
sg16
F400.0
sa(dp81
g6
I0
sg7
I500000
sg8
I10
sg9
F4.34
sg10
F877.0
sg11
F-1.0
sg12
I10
sg13
F8.0
sg14
F560.0000000000001
sg15
I5
sg16
F400.0
sa(dp82
g6
I3
sg7
I500000
sg8
I10
sg9
F4.29
sg10
F689.0
sg11
F-1.0
sg12
I10
sg13
F17.0
sg14
F520.0000000000001
sg15
I4
sg16
F400.0
sa(dp83
g6
I0
sg7
I500000
sg8
I10
sg9
F4.38
sg10
F816.0
sg11
F-1.0
sg12
I10
sg13
F17.0
sg14
F520.0000000000001
sg15
I4
sg16
F400.0
sa(dp84
g6
I3
sg7
I500000
sg8
I10
sg9
F-1.0
sg10
F-1.0
sg11
F-1.0
sg12
I10
sg13
F-1.0
sg14
F480.0
sg15
I3
sg16
F400.0
sa(dp85
g6
I0
sg7
I500000
sg8
I10
sg9
F3.28
sg10
F597.0
sg11
F-1.0
sg12
I10
sg13
F9.0
sg14
F480.0
sg15
I3
sg16
F400.0
sa(dp86
g6
I3
sg7
I500000
sg8
I10
sg9
F4.21
sg10
F723.0
sg11
F-1.0
sg12
I10
sg13
F16.0
sg14
F440.0
sg15
I2
sg16
F400.0
sa(dp87
g6
I0
sg7
I500000
sg8
I10
sg9
F2.93
sg10
F502.0
sg11
F0.9
sg12
I10
sg13
F9.0
sg14
F440.0
sg15
I2
sg16
F400.0
sa(dp88
g6
I3
sg7
I500000
sg8
I10
sg9
F3.02
sg10
F784.0
sg11
F-1.0
sg12
I10
sg13
F16.0
sg14
F640.0
sg15
I7
sg16
F400.0
sa(dp89
g6
I0
sg7
I500000
sg8
I10
sg9
F4.49
sg10
F731.0
sg11
F-1.0
sg12
I10
sg13
F9.0
sg14
F640.0
sg15
I7
sg16
F400.0
sa(dp90
g6
I3
sg7
I500000
sg8
I10
sg9
F3.51
sg10
F673.0
sg11
F-1.0
sg12
I10
sg13
F16.0
sg14
F600.0
sg15
I6
sg16
F400.0
sa(dp91
g6
I0
sg7
I500000
sg8
I10
sg9
F4.29
sg10
F792.0
sg11
F-1.0
sg12
I10
sg13
F17.0
sg14
F600.0
sg15
I6
sg16
F400.0
sa(dp92
g6
I3
sg7
I500000
sg8
I10
sg9
F3.25
sg10
F592.0
sg11
F-1.0
sg12
I10
sg13
F9.0
sg14
F560.0000000000001
sg15
I5
sg16
F400.0
sa(dp93
g6
I0
sg7
I500000
sg8
I10
sg9
F4.24
sg10
F896.0
sg11
F-1.0
sg12
I10
sg13
F18.0
sg14
F560.0000000000001
sg15
I5
sg16
F400.0
sa(dp94
g6
I3
sg7
I500000
sg8
I10
sg9
F3.02
sg10
F381.0
sg11
F-1.0
sg12
I10
sg13
F9.0
sg14
F520.0000000000001
sg15
I4
sg16
F400.0
sa(dp95
g6
I0
sg7
I500000
sg8
I10
sg9
F4.53
sg10
F919.0
sg11
F0.1
sg12
I10
sg13
F17.0
sg14
F520.0000000000001
sg15
I4
sg16
F400.0
sa(dp96
g6
I3
sg7
I500000
sg8
I10
sg9
F-1.0
sg10
F-1.0
sg11
F-1.0
sg12
I10
sg13
F-1.0
sg14
F480.0
sg15
I3
sg16
F400.0
sa(dp97
g6
I0
sg7
I500000
sg8
I10
sg9
F4.4
sg10
F762.0
sg11
F0.3
sg12
I10
sg13
F17.0
sg14
F480.0
sg15
I3
sg16
F400.0
sa(dp98
g6
I3
sg7
I500000
sg8
I10
sg9
F4.18
sg10
F808.0
sg11
F-1.0
sg12
I10
sg13
F18.0
sg14
F440.0
sg15
I2
sg16
F400.0
sa(dp99
g6
I0
sg7
I500000
sg8
I10
sg9
F3.74
sg10
F748.0
sg11
F0.3
sg12
I10
sg13
F9.0
sg14
F440.0
sg15
I2
sg16
F400.0
sa(dp100
g6
I3
sg7
I500000
sg8
I10
sg9
F3.84
sg10
F813.0
sg11
F-1.0
sg12
I10
sg13
F17.0
sg14
F640.0
sg15
I7
sg16
F400.0
sa(dp101
g6
I0
sg7
I500000
sg8
I10
sg9
F4.32
sg10
F996.0
sg11
F-1.0
sg12
I10
sg13
F17.0
sg14
F640.0
sg15
I7
sg16
F400.0
sa(dp102
g6
I3
sg7
I500000
sg8
I10
sg9
F4.34
sg10
F623.0
sg11
F-1.0
sg12
I10
sg13
F17.0
sg14
F600.0
sg15
I6
sg16
F400.0
sa(dp103
g6
I0
sg7
I500000
sg8
I10
sg9
F4.0
sg10
F797.0
sg11
F-1.0
sg12
I10
sg13
F9.0
sg14
F600.0
sg15
I6
sg16
F400.0
sa(dp104
g6
I3
sg7
I500000
sg8
I10
sg9
F4.37
sg10
F988.0
sg11
F-1.0
sg12
I10
sg13
F17.0
sg14
F560.0000000000001
sg15
I5
sg16
F400.0
sa(dp105
g6
I0
sg7
I500000
sg8
I10
sg9
F4.08
sg10
F868.0
sg11
F-1.0
sg12
I10
sg13
F9.0
sg14
F560.0000000000001
sg15
I5
sg16
F400.0
sa(dp106
g6
I3
sg7
I500000
sg8
I10
sg9
F3.98
sg10
F946.0
sg11
F-1.0
sg12
I10
sg13
F17.0
sg14
F520.0000000000001
sg15
I4
sg16
F400.0
sa(dp107
g6
I0
sg7
I500000
sg8
I10
sg9
F4.55
sg10
F783.0
sg11
F-1.0
sg12
I10
sg13
F18.0
sg14
F520.0000000000001
sg15
I4
sg16
F400.0
sa(dp108
g6
I3
sg7
I500000
sg8
I10
sg9
F4.32
sg10
F879.0
sg11
F0.4
sg12
I10
sg13
F18.0
sg14
F480.0
sg15
I3
sg16
F400.0
sa(dp109
g6
I0
sg7
I500000
sg8
I10
sg9
F4.4
sg10
F923.0
sg11
F-1.0
sg12
I10
sg13
F16.0
sg14
F480.0
sg15
I3
sg16
F400.0
sa(dp110
g6
I3
sg7
I500000
sg8
I10
sg9
F-1.0
sg10
F-1.0
sg11
F-1.0
sg12
I10
sg13
F-1.0
sg14
F440.0
sg15
I2
sg16
F400.0
sa(dp111
g6
I0
sg7
I500000
sg8
I10
sg9
F4.31
sg10
F836.0
sg11
F0.3
sg12
I10
sg13
F9.0
sg14
F440.0
sg15
I2
sg16
F400.0
sa(dp112
g6
I3
sg7
I500000
sg8
I10
sg9
F4.39
sg10
F732.0
sg11
F-1.0
sg12
I10
sg13
F35.0
sg14
F640.0
sg15
I7
sg16
F400.0
sa(dp113
g6
I0
sg7
I500000
sg8
I10
sg9
F4.04
sg10
F786.0
sg11
F-1.0
sg12
I10
sg13
F9.0
sg14
F640.0
sg15
I7
sg16
F400.0
sa(dp114
g6
I3
sg7
I500000
sg8
I10
sg9
F4.47
sg10
F684.0
sg11
F-1.0
sg12
I10
sg13
F18.0
sg14
F600.0
sg15
I6
sg16
F400.0
sa(dp115
g6
I0
sg7
I500000
sg8
I10
sg9
F4.53
sg10
F912.0
sg11
F-1.0
sg12
I10
sg13
F9.0
sg14
F600.0
sg15
I6
sg16
F400.0
sa(dp116
g6
I3
sg7
I500000
sg8
I10
sg9
F4.23
sg10
F908.0
sg11
F-1.0
sg12
I10
sg13
F18.0
sg14
F560.0000000000001
sg15
I5
sg16
F400.0
sa(dp117
g6
I0
sg7
I500000
sg8
I10
sg9
F4.32
sg10
F892.0
sg11
F-1.0
sg12
I10
sg13
F17.0
sg14
F560.0000000000001
sg15
I5
sg16
F400.0
sa(dp118
g6
I3
sg7
I500000
sg8
I10
sg9
F4.1
sg10
F901.0
sg11
F-1.0
sg12
I10
sg13
F19.0
sg14
F520.0000000000001
sg15
I4
sg16
F400.0
sa(dp119
g6
I0
sg7
I500000
sg8
I10
sg9
F4.63
sg10
F700.0
sg11
F-1.0
sg12
I10
sg13
F9.0
sg14
F520.0000000000001
sg15
I4
sg16
F400.0
sa(dp120
g6
I3
sg7
I500000
sg8
I10
sg9
F4.33
sg10
F895.0
sg11
F-1.0
sg12
I10
sg13
F17.0
sg14
F480.0
sg15
I3
sg16
F400.0
sa(dp121
g6
I0
sg7
I500000
sg8
I10
sg9
F4.13
sg10
F517.0
sg11
F0.5
sg12
I10
sg13
F9.0
sg14
F480.0
sg15
I3
sg16
F400.0
sa(dp122
g6
I3
sg7
I500000
sg8
I10
sg9
F-1.0
sg10
F-1.0
sg11
F-1.0
sg12
I10
sg13
F-1.0
sg14
F440.0
sg15
I2
sg16
F400.0
sa(dp123
g6
I0
sg7
I500000
sg8
I10
sg9
F4.2
sg10
F606.0
sg11
F0.7
sg12
I10
sg13
F16.0
sg14
F440.0
sg15
I2
sg16
F400.0
sa(dp124
g6
I3
sg7
I500000
sg8
I10
sg9
F4.49
sg10
F773.0
sg11
F-1.0
sg12
I10
sg13
F20.0
sg14
F640.0
sg15
I7
sg16
F400.0
sa(dp125
g6
I0
sg7
I500000
sg8
I10
sg9
F4.61
sg10
F851.0
sg11
F-1.0
sg12
I10
sg13
F28.0
sg14
F640.0
sg15
I7
sg16
F400.0
sa(dp126
g6
I3
sg7
I500000
sg8
I10
sg9
F3.64
sg10
F610.0
sg11
F-1.0
sg12
I10
sg13
F17.0
sg14
F600.0
sg15
I6
sg16
F400.0
sa(dp127
g6
I0
sg7
I500000
sg8
I10
sg9
F4.31
sg10
F887.0
sg11
F0.2
sg12
I10
sg13
F21.0
sg14
F600.0
sg15
I6
sg16
F400.0
sa(dp128
g6
I3
sg7
I500000
sg8
I10
sg9
F4.34
sg10
F724.0
sg11
F-1.0
sg12
I10
sg13
F17.0
sg14
F560.0000000000001
sg15
I5
sg16
F400.0
sa(dp129
g6
I0
sg7
I500000
sg8
I10
sg9
F4.25
sg10
F572.0
sg11
F-1.0
sg12
I10
sg13
F16.0
sg14
F560.0000000000001
sg15
I5
sg16
F400.0
sa(dp130
g6
I3
sg7
I500000
sg8
I10
sg9
F4.24
sg10
F913.0
sg11
F-1.0
sg12
I10
sg13
F16.0
sg14
F520.0000000000001
sg15
I4
sg16
F400.0
sa(dp131
g6
I0
sg7
I500000
sg8
I10
sg9
F4.35
sg10
F677.0
sg11
F0.3
sg12
I10
sg13
F17.0
sg14
F520.0000000000001
sg15
I4
sg16
F400.0
sa(dp132
g6
I3
sg7
I500000
sg8
I10
sg9
F3.73
sg10
F762.0
sg11
F-1.0
sg12
I10
sg13
F9.0
sg14
F480.0
sg15
I3
sg16
F400.0
sa(dp133
g6
I0
sg7
I500000
sg8
I10
sg9
F5.77
sg10
F959.0
sg11
F0.1
sg12
I10
sg13
F39.0
sg14
F480.0
sg15
I3
sg16
F400.0
sa(dp134
g6
I3
sg7
I500000
sg8
I10
sg9
F4.26
sg10
F997.0
sg11
F0.8
sg12
I10
sg13
F8.0
sg14
F440.0
sg15
I2
sg16
F400.0
sa(dp135
g6
I0
sg7
I500000
sg8
I10
sg9
F3.89
sg10
F641.0
sg11
F0.3
sg12
I10
sg13
F9.0
sg14
F440.0
sg15
I2
sg16
F400.0
sa(dp136
g6
I3
sg7
I500000
sg8
I10
sg9
F4.02
sg10
F807.0
sg11
F-1.0
sg12
I10
sg13
F17.0
sg14
F640.0
sg15
I7
sg16
F400.0
sa(dp137
g6
I0
sg7
I500000
sg8
I10
sg9
F4.64
sg10
F790.0
sg11
F-1.0
sg12
I10
sg13
F29.0
sg14
F640.0
sg15
I7
sg16
F400.0
sa(dp138
g6
I3
sg7
I500000
sg8
I10
sg9
F4.63
sg10
F555.0
sg11
F-1.0
sg12
I10
sg13
F18.0
sg14
F600.0
sg15
I6
sg16
F400.0
sa(dp139
g6
I0
sg7
I500000
sg8
I10
sg9
F4.55
sg10
F986.0
sg11
F-1.0
sg12
I10
sg13
F19.0
sg14
F600.0
sg15
I6
sg16
F400.0
sa(dp140
g6
I3
sg7
I500000
sg8
I10
sg9
F4.18
sg10
F668.0
sg11
F-1.0
sg12
I10
sg13
F17.0
sg14
F560.0000000000001
sg15
I5
sg16
F400.0
sa(dp141
g6
I0
sg7
I500000
sg8
I10
sg9
F4.32
sg10
F773.0
sg11
F-1.0
sg12
I10
sg13
F9.0
sg14
F560.0000000000001
sg15
I5
sg16
F400.0
sa(dp142
g6
I3
sg7
I500000
sg8
I10
sg9
F3.51
sg10
F728.0
sg11
F-1.0
sg12
I10
sg13
F16.0
sg14
F520.0000000000001
sg15
I4
sg16
F400.0
sa(dp143
g6
I0
sg7
I500000
sg8
I10
sg9
F4.31
sg10
F713.0
sg11
F0.2
sg12
I10
sg13
F9.0
sg14
F520.0000000000001
sg15
I4
sg16
F400.0
sa(dp144
g6
I3
sg7
I500000
sg8
I10
sg9
F3.78
sg10
F904.0
sg11
F-1.0
sg12
I10
sg13
F17.0
sg14
F480.0
sg15
I3
sg16
F400.0
sa(dp145
g6
I0
sg7
I500000
sg8
I10
sg9
F3.32
sg10
F747.0
sg11
F0.2
sg12
I10
sg13
F9.0
sg14
F480.0
sg15
I3
sg16
F400.0
sa(dp146
g6
I3
sg7
I500000
sg8
I10
sg9
F3.99
sg10
F587.0
sg11
F-1.0
sg12
I10
sg13
F16.0
sg14
F440.0
sg15
I2
sg16
F400.0
sa(dp147
g6
I0
sg7
I500000
sg8
I10
sg9
F2.97
sg10
F688.0
sg11
F0.1
sg12
I10
sg13
F9.0
sg14
F440.0
sg15
I2
sg16
F400.0
sa(dp148
g6
I3
sg7
I500000
sg8
I10
sg9
F3.29
sg10
F673.0
sg11
F-1.0
sg12
I10
sg13
F16.0
sg14
F640.0
sg15
I7
sg16
F400.0
sa(dp149
g6
I0
sg7
I500000
sg8
I10
sg9
F4.02
sg10
F907.0
sg11
F-1.0
sg12
I10
sg13
F17.0
sg14
F640.0
sg15
I7
sg16
F400.0
sa(dp150
g6
I3
sg7
I500000
sg8
I10
sg9
F4.85
sg10
F921.0
sg11
F-1.0
sg12
I10
sg13
F19.0
sg14
F600.0
sg15
I6
sg16
F400.0
sa(dp151
g6
I0
sg7
I500000
sg8
I10
sg9
F3.68
sg10
F653.0
sg11
F-1.0
sg12
I10
sg13
F9.0
sg14
F600.0
sg15
I6
sg16
F400.0
sa(dp152
g6
I3
sg7
I500000
sg8
I10
sg9
F3.17
sg10
F721.0
sg11
F-1.0
sg12
I10
sg13
F9.0
sg14
F560.0000000000001
sg15
I5
sg16
F400.0
sa(dp153
g6
I0
sg7
I500000
sg8
I10
sg9
F4.61
sg10
F706.0
sg11
F-1.0
sg12
I10
sg13
F17.0
sg14
F560.0000000000001
sg15
I5
sg16
F400.0
sa(dp154
g6
I3
sg7
I500000
sg8
I10
sg9
F3.9
sg10
F541.0
sg11
F-1.0
sg12
I10
sg13
F9.0
sg14
F520.0000000000001
sg15
I4
sg16
F400.0
sa(dp155
g6
I0
sg7
I500000
sg8
I10
sg9
F4.14
sg10
F682.0
sg11
F0.2
sg12
I10
sg13
F9.0
sg14
F520.0000000000001
sg15
I4
sg16
F400.0
sa(dp156
g6
I3
sg7
I500000
sg8
I10
sg9
F4.31
sg10
F733.0
sg11
F-1.0
sg12
I10
sg13
F9.0
sg14
F480.0
sg15
I3
sg16
F400.0
sa(dp157
g6
I0
sg7
I500000
sg8
I10
sg9
F3.08
sg10
F709.0
sg11
F-1.0
sg12
I10
sg13
F9.0
sg14
F480.0
sg15
I3
sg16
F400.0
sa(dp158
g6
I3
sg7
I500000
sg8
I10
sg9
F3.49
sg10
F617.0
sg11
F-1.0
sg12
I10
sg13
F13.0
sg14
F440.0
sg15
I2
sg16
F400.0
sa(dp159
g6
I0
sg7
I500000
sg8
I10
sg9
F4.46
sg10
F679.0
sg11
F0.3
sg12
I10
sg13
F9.0
sg14
F440.0
sg15
I2
sg16
F400.0
sa(dp160
g6
I3
sg7
I500000
sg8
I10
sg9
F4.35
sg10
F892.0
sg11
F-1.0
sg12
I10
sg13
F18.0
sg14
F640.0
sg15
I7
sg16
F400.0
sa(dp161
g6
I0
sg7
I500000
sg8
I10
sg9
F5.48
sg10
F854.0
sg11
F-1.0
sg12
I10
sg13
F37.0
sg14
F640.0
sg15
I7
sg16
F400.0
sa(dp162
g6
I3
sg7
I500000
sg8
I10
sg9
F3.92
sg10
F776.0
sg11
F-1.0
sg12
I10
sg13
F17.0
sg14
F600.0
sg15
I6
sg16
F400.0
sa(dp163
g6
I0
sg7
I500000
sg8
I10
sg9
F3.74
sg10
F792.0
sg11
F-1.0
sg12
I10
sg13
F8.0
sg14
F600.0
sg15
I6
sg16
F400.0
sa(dp164
g6
I3
sg7
I500000
sg8
I10
sg9
F3.66
sg10
F518.0
sg11
F-1.0
sg12
I10
sg13
F9.0
sg14
F560.0000000000001
sg15
I5
sg16
F400.0
sa(dp165
g6
I0
sg7
I500000
sg8
I10
sg9
F4.3
sg10
F728.0
sg11
F-1.0
sg12
I10
sg13
F16.0
sg14
F560.0000000000001
sg15
I5
sg16
F400.0
sa(dp166
g6
I3
sg7
I500000
sg8
I10
sg9
F4.1
sg10
F737.0
sg11
F-1.0
sg12
I10
sg13
F16.0
sg14
F520.0000000000001
sg15
I4
sg16
F400.0
sa(dp167
g6
I0
sg7
I500000
sg8
I10
sg9
F4.31
sg10
F939.0
sg11
F0.3
sg12
I10
sg13
F9.0
sg14
F520.0000000000001
sg15
I4
sg16
F400.0
sa(dp168
g6
I3
sg7
I500000
sg8
I10
sg9
F2.89
sg10
F640.0
sg11
F-1.0
sg12
I10
sg13
F9.0
sg14
F480.0
sg15
I3
sg16
F400.0
sa(dp169
g6
I0
sg7
I500000
sg8
I10
sg9
F4.01
sg10
F900.0
sg11
F0.3
sg12
I10
sg13
F9.0
sg14
F480.0
sg15
I3
sg16
F400.0
sa(dp170
g6
I3
sg7
I500000
sg8
I10
sg9
F-1.0
sg10
F-1.0
sg11
F-1.0
sg12
I10
sg13
F-1.0
sg14
F440.0
sg15
I2
sg16
F400.0
sa(dp171
g6
I0
sg7
I500000
sg8
I10
sg9
F4.25
sg10
F680.0
sg11
F0.7
sg12
I10
sg13
F21.0
sg14
F440.0
sg15
I2
sg16
F400.0
sa(dp172
g6
I3
sg7
I500000
sg8
I10
sg9
F3.68
sg10
F581.0
sg11
F-1.0
sg12
I10
sg13
F9.0
sg14
F640.0
sg15
I7
sg16
F400.0
sa(dp173
g6
I0
sg7
I500000
sg8
I10
sg9
F4.01
sg10
F654.0
sg11
F-1.0
sg12
I10
sg13
F9.0
sg14
F640.0
sg15
I7
sg16
F400.0
sa(dp174
g6
I3
sg7
I500000
sg8
I10
sg9
F4.42
sg10
F780.0
sg11
F-1.0
sg12
I10
sg13
F17.0
sg14
F600.0
sg15
I6
sg16
F400.0
sa(dp175
g6
I0
sg7
I500000
sg8
I10
sg9
F3.99
sg10
F713.0
sg11
F-1.0
sg12
I10
sg13
F9.0
sg14
F600.0
sg15
I6
sg16
F400.0
sa(dp176
g6
I3
sg7
I500000
sg8
I10
sg9
F4.14
sg10
F912.0
sg11
F-1.0
sg12
I10
sg13
F17.0
sg14
F560.0000000000001
sg15
I5
sg16
F400.0
sa(dp177
g6
I0
sg7
I500000
sg8
I10
sg9
F4.42
sg10
F962.0
sg11
F0.4
sg12
I10
sg13
F18.0
sg14
F560.0000000000001
sg15
I5
sg16
F400.0
sa(dp178
g6
I3
sg7
I500000
sg8
I10
sg9
F4.19
sg10
F664.0
sg11
F-1.0
sg12
I10
sg13
F25.0
sg14
F520.0000000000001
sg15
I4
sg16
F400.0
sa(dp179
g6
I0
sg7
I500000
sg8
I10
sg9
F4.29
sg10
F788.0
sg11
F-1.0
sg12
I10
sg13
F17.0
sg14
F520.0000000000001
sg15
I4
sg16
F400.0
sa(dp180
g6
I3
sg7
I500000
sg8
I10
sg9
F3.62
sg10
F844.0
sg11
F-1.0
sg12
I10
sg13
F9.0
sg14
F480.0
sg15
I3
sg16
F400.0
sa(dp181
g6
I0
sg7
I500000
sg8
I10
sg9
F4.24
sg10
F792.0
sg11
F0.1
sg12
I10
sg13
F25.0
sg14
F480.0
sg15
I3
sg16
F400.0
sa(dp182
g6
I3
sg7
I500000
sg8
I10
sg9
F2.61
sg10
F373.0
sg11
F-1.0
sg12
I10
sg13
F9.0
sg14
F440.0
sg15
I2
sg16
F400.0
sa(dp183
g6
I0
sg7
I500000
sg8
I10
sg9
F4.38
sg10
F979.0
sg11
F0.8
sg12
I10
sg13
F17.0
sg14
F440.0
sg15
I2
sg16
F400.0
sa(dp184
g6
I3
sg7
I500000
sg8
I10
sg9
F4.12
sg10
F770.0
sg11
F-1.0
sg12
I10
sg13
F16.0
sg14
F640.0
sg15
I7
sg16
F400.0
sa(dp185
g6
I0
sg7
I500000
sg8
I10
sg9
F4.49
sg10
F841.0
sg11
F-1.0
sg12
I10
sg13
F9.0
sg14
F640.0
sg15
I7
sg16
F400.0
sa(dp186
g6
I3
sg7
I500000
sg8
I10
sg9
F4.12
sg10
F677.0
sg11
F-1.0
sg12
I10
sg13
F17.0
sg14
F600.0
sg15
I6
sg16
F400.0
sa(dp187
g6
I0
sg7
I500000
sg8
I10
sg9
F5.57
sg10
F727.0
sg11
F-1.0
sg12
I10
sg13
F38.0
sg14
F600.0
sg15
I6
sg16
F400.0
sa(dp188
g6
I3
sg7
I500000
sg8
I10
sg9
F4.39
sg10
F700.0
sg11
F-1.0
sg12
I10
sg13
F9.0
sg14
F560.0000000000001
sg15
I5
sg16
F400.0
sa(dp189
g6
I0
sg7
I500000
sg8
I10
sg9
F4.21
sg10
F851.0
sg11
F-1.0
sg12
I10
sg13
F9.0
sg14
F560.0000000000001
sg15
I5
sg16
F400.0
sa(dp190
g6
I3
sg7
I500000
sg8
I10
sg9
F3.93
sg10
F834.0
sg11
F-1.0
sg12
I10
sg13
F16.0
sg14
F520.0000000000001
sg15
I4
sg16
F400.0
sa(dp191
g6
I0
sg7
I500000
sg8
I10
sg9
F3.04
sg10
F855.0
sg11
F0.4
sg12
I10
sg13
F17.0
sg14
F520.0000000000001
sg15
I4
sg16
F400.0
sa(dp192
g6
I3
sg7
I500000
sg8
I10
sg9
F3.58
sg10
F714.0
sg11
F-1.0
sg12
I10
sg13
F17.0
sg14
F480.0
sg15
I3
sg16
F400.0
sa(dp193
g6
I0
sg7
I500000
sg8
I10
sg9
F4.23
sg10
F764.0
sg11
F0.3
sg12
I10
sg13
F16.0
sg14
F480.0
sg15
I3
sg16
F400.0
sa(dp194
g6
I3
sg7
I500000
sg8
I10
sg9
F3.54
sg10
F717.0
sg11
F-1.0
sg12
I10
sg13
F17.0
sg14
F440.0
sg15
I2
sg16
F400.0
sa(dp195
g6
I0
sg7
I500000
sg8
I10
sg9
F3.59
sg10
F694.0
sg11
F0.1
sg12
I10
sg13
F15.0
sg14
F440.0
sg15
I2
sg16
F400.0
sa(dp196
g6
I3
sg7
I500000
sg8
I10
sg9
F5.09
sg10
F846.0
sg11
F-1.0
sg12
I10
sg13
F37.0
sg14
F640.0
sg15
I7
sg16
F400.0
sa(dp197
g6
I0
sg7
I500000
sg8
I10
sg9
F4.4
sg10
F865.0
sg11
F-1.0
sg12
I10
sg13
F37.0
sg14
F640.0
sg15
I7
sg16
F400.0
sa(dp198
g6
I3
sg7
I500000
sg8
I10
sg9
F3.91
sg10
F910.0
sg11
F-1.0
sg12
I10
sg13
F17.0
sg14
F600.0
sg15
I6
sg16
F400.0
sa(dp199
g6
I0
sg7
I500000
sg8
I10
sg9
F4.31
sg10
F675.0
sg11
F-1.0
sg12
I10
sg13
F9.0
sg14
F600.0
sg15
I6
sg16
F400.0
sa(dp200
g6
I3
sg7
I500000
sg8
I10
sg9
F3.18
sg10
F736.0
sg11
F-1.0
sg12
I10
sg13
F17.0
sg14
F560.0000000000001
sg15
I5
sg16
F400.0
sa(dp201
g6
I0
sg7
I500000
sg8
I10
sg9
F4.17
sg10
F541.0
sg11
F-1.0
sg12
I10
sg13
F9.0
sg14
F560.0000000000001
sg15
I5
sg16
F400.0
sa(dp202
g6
I3
sg7
I500000
sg8
I10
sg9
F3.53
sg10
F810.0
sg11
F-1.0
sg12
I10
sg13
F8.0
sg14
F520.0000000000001
sg15
I4
sg16
F400.0
sa(dp203
g6
I0
sg7
I500000
sg8
I10
sg9
F6.17
sg10
F727.0
sg11
F0.4
sg12
I10
sg13
F9.0
sg14
F520.0000000000001
sg15
I4
sg16
F400.0
sa(dp204
g6
I3
sg7
I500000
sg8
I10
sg9
F3.75
sg10
F641.0
sg11
F-1.0
sg12
I10
sg13
F17.0
sg14
F480.0
sg15
I3
sg16
F400.0
sa(dp205
g6
I0
sg7
I500000
sg8
I10
sg9
F4.29
sg10
F770.0
sg11
F0.1
sg12
I10
sg13
F16.0
sg14
F480.0
sg15
I3
sg16
F400.0
sa(dp206
g6
I3
sg7
I500000
sg8
I10
sg9
F4.5
sg10
F777.0
sg11
F0.7
sg12
I10
sg13
F18.0
sg14
F440.0
sg15
I2
sg16
F400.0
sa(dp207
g6
I0
sg7
I500000
sg8
I10
sg9
F4.14
sg10
F550.0
sg11
F0.4
sg12
I10
sg13
F9.0
sg14
F440.0
sg15
I2
sg16
F400.0
sa(dp208
g6
I3
sg7
I500000
sg8
I10
sg9
F4.22
sg10
F695.0
sg11
F-1.0
sg12
I10
sg13
F17.0
sg14
F640.0
sg15
I7
sg16
F400.0
sa(dp209
g6
I0
sg7
I500000
sg8
I10
sg9
F4.42
sg10
F909.0
sg11
F-1.0
sg12
I10
sg13
F17.0
sg14
F640.0
sg15
I7
sg16
F400.0
sa(dp210
g6
I3
sg7
I500000
sg8
I10
sg9
F4.4
sg10
F593.0
sg11
F-1.0
sg12
I10
sg13
F9.0
sg14
F600.0
sg15
I6
sg16
F400.0
sa(dp211
g6
I0
sg7
I500000
sg8
I10
sg9
F4.1
sg10
F853.0
sg11
F-1.0
sg12
I10
sg13
F19.0
sg14
F600.0
sg15
I6
sg16
F400.0
sa(dp212
g6
I3
sg7
I500000
sg8
I10
sg9
F3.67
sg10
F725.0
sg11
F-1.0
sg12
I10
sg13
F9.0
sg14
F560.0000000000001
sg15
I5
sg16
F400.0
sa(dp213
g6
I0
sg7
I500000
sg8
I10
sg9
F4.5
sg10
F972.0
sg11
F0.1
sg12
I10
sg13
F18.0
sg14
F560.0000000000001
sg15
I5
sg16
F400.0
sa(dp214
g6
I3
sg7
I500000
sg8
I10
sg9
F3.09
sg10
F648.0
sg11
F-1.0
sg12
I10
sg13
F9.0
sg14
F520.0000000000001
sg15
I4
sg16
F400.0
sa(dp215
g6
I0
sg7
I500000
sg8
I10
sg9
F5.33
sg10
F837.0
sg11
F0.3
sg12
I10
sg13
F9.0
sg14
F520.0000000000001
sg15
I4
sg16
F400.0
sa(dp216
g6
I3
sg7
I500000
sg8
I10
sg9
F4.27
sg10
F750.0
sg11
F-1.0
sg12
I10
sg13
F22.0
sg14
F480.0
sg15
I3
sg16
F400.0
sa(dp217
g6
I0
sg7
I500000
sg8
I10
sg9
F4.26
sg10
F673.0
sg11
F0.1
sg12
I10
sg13
F9.0
sg14
F480.0
sg15
I3
sg16
F400.0
sa(dp218
g6
I3
sg7
I500000
sg8
I10
sg9
F4.23
sg10
F682.0
sg11
F0.3
sg12
I10
sg13
F9.0
sg14
F440.0
sg15
I2
sg16
F400.0
sa(dp219
g6
I0
sg7
I500000
sg8
I10
sg9
F3.63
sg10
F785.0
sg11
F0.4
sg12
I10
sg13
F16.0
sg14
F440.0
sg15
I2
sg16
F400.0
sa(dp220
g6
I3
sg7
I500000
sg8
I10
sg9
F4.56
sg10
F856.0
sg11
F-1.0
sg12
I10
sg13
F31.0
sg14
F640.0
sg15
I7
sg16
F400.0
sa(dp221
g6
I0
sg7
I500000
sg8
I10
sg9
F4.49
sg10
F831.0
sg11
F-1.0
sg12
I10
sg13
F18.0
sg14
F640.0
sg15
I7
sg16
F400.0
sa(dp222
g6
I3
sg7
I500000
sg8
I10
sg9
F3.92
sg10
F572.0
sg11
F-1.0
sg12
I10
sg13
F9.0
sg14
F600.0
sg15
I6
sg16
F400.0
sa(dp223
g6
I0
sg7
I500000
sg8
I10
sg9
F4.59
sg10
F811.0
sg11
F-1.0
sg12
I10
sg13
F9.0
sg14
F600.0
sg15
I6
sg16
F400.0
sa(dp224
g6
I3
sg7
I500000
sg8
I10
sg9
F4.19
sg10
F716.0
sg11
F-1.0
sg12
I10
sg13
F20.0
sg14
F560.0000000000001
sg15
I5
sg16
F400.0
sa(dp225
g6
I0
sg7
I500000
sg8
I10
sg9
F4.27
sg10
F810.0
sg11
F0.1
sg12
I10
sg13
F9.0
sg14
F560.0000000000001
sg15
I5
sg16
F400.0
sa(dp226
g6
I3
sg7
I500000
sg8
I10
sg9
F2.87
sg10
F850.0
sg11
F-1.0
sg12
I10
sg13
F9.0
sg14
F520.0000000000001
sg15
I4
sg16
F400.0
sa(dp227
g6
I0
sg7
I500000
sg8
I10
sg9
F4.46
sg10
F678.0
sg11
F0.1
sg12
I10
sg13
F9.0
sg14
F520.0000000000001
sg15
I4
sg16
F400.0
sa(dp228
g6
I3
sg7
I500000
sg8
I10
sg9
F4.44
sg10
F702.0
sg11
F-1.0
sg12
I10
sg13
F18.0
sg14
F480.0
sg15
I3
sg16
F400.0
sa(dp229
g6
I0
sg7
I500000
sg8
I10
sg9
F4.31
sg10
F854.0
sg11
F0.2
sg12
I10
sg13
F9.0
sg14
F480.0
sg15
I3
sg16
F400.0
sa(dp230
g6
I3
sg7
I500000
sg8
I10
sg9
F3.02
sg10
F606.0
sg11
F0.7
sg12
I10
sg13
F16.0
sg14
F440.0
sg15
I2
sg16
F400.0
sa(dp231
g6
I0
sg7
I500000
sg8
I10
sg9
F3.69
sg10
F762.0
sg11
F-1.0
sg12
I10
sg13
F15.0
sg14
F440.0
sg15
I2
sg16
F400.0
sa(dp232
g6
I3
sg7
I500000
sg8
I10
sg9
F3.88
sg10
F740.0
sg11
F-1.0
sg12
I10
sg13
F9.0
sg14
F640.0
sg15
I7
sg16
F400.0
sa(dp233
g6
I0
sg7
I500000
sg8
I10
sg9
F4.49
sg10
F988.0
sg11
F-1.0
sg12
I10
sg13
F36.0
sg14
F640.0
sg15
I7
sg16
F400.0
sa(dp234
g6
I3
sg7
I500000
sg8
I10
sg9
F4.21
sg10
F705.0
sg11
F-1.0
sg12
I10
sg13
F17.0
sg14
F600.0
sg15
I6
sg16
F400.0
sa(dp235
g6
I0
sg7
I500000
sg8
I10
sg9
F4.5
sg10
F868.0
sg11
F-1.0
sg12
I10
sg13
F17.0
sg14
F600.0
sg15
I6
sg16
F400.0
sa(dp236
g6
I3
sg7
I500000
sg8
I10
sg9
F3.06
sg10
F576.0
sg11
F-1.0
sg12
I10
sg13
F16.0
sg14
F560.0000000000001
sg15
I5
sg16
F400.0
sa(dp237
g6
I0
sg7
I500000
sg8
I10
sg9
F4.41
sg10
F824.0
sg11
F-1.0
sg12
I10
sg13
F27.0
sg14
F560.0000000000001
sg15
I5
sg16
F400.0
sa(dp238
g6
I3
sg7
I500000
sg8
I10
sg9
F2.84
sg10
F808.0
sg11
F-1.0
sg12
I10
sg13
F9.0
sg14
F520.0000000000001
sg15
I4
sg16
F400.0
sa(dp239
g6
I0
sg7
I500000
sg8
I10
sg9
F4.36
sg10
F884.0
sg11
F0.3
sg12
I10
sg13
F19.0
sg14
F520.0000000000001
sg15
I4
sg16
F400.0
sa(dp240
g6
I3
sg7
I500000
sg8
I10
sg9
F3.85
sg10
F875.0
sg11
F-1.0
sg12
I10
sg13
F17.0
sg14
F480.0
sg15
I3
sg16
F400.0
sa(dp241
g6
I0
sg7
I500000
sg8
I10
sg9
F4.32
sg10
F700.0
sg11
F0.7
sg12
I10
sg13
F16.0
sg14
F480.0
sg15
I3
sg16
F400.0
sa(dp242
g6
I3
sg7
I500000
sg8
I10
sg9
F-1.0
sg10
F-1.0
sg11
F-1.0
sg12
I10
sg13
F-1.0
sg14
F440.0
sg15
I2
sg16
F400.0
sa(dp243
g6
I0
sg7
I500000
sg8
I10
sg9
F2.87
sg10
F544.0
sg11
F-1.0
sg12
I10
sg13
F9.0
sg14
F440.0
sg15
I2
sg16
F400.0
sa(dp244
g6
I3
sg7
I500000
sg8
I10
sg9
F4.42
sg10
F794.0
sg11
F-1.0
sg12
I10
sg13
F17.0
sg14
F640.0
sg15
I7
sg16
F400.0
sa(dp245
g6
I0
sg7
I500000
sg8
I10
sg9
F4.04
sg10
F955.0
sg11
F-1.0
sg12
I10
sg13
F8.0
sg14
F640.0
sg15
I7
sg16
F400.0
sa(dp246
g6
I3
sg7
I500000
sg8
I10
sg9
F4.4
sg10
F771.0
sg11
F-1.0
sg12
I10
sg13
F18.0
sg14
F600.0
sg15
I6
sg16
F400.0
sa(dp247
g6
I0
sg7
I500000
sg8
I10
sg9
F4.37
sg10
F699.0
sg11
F-1.0
sg12
I10
sg13
F17.0
sg14
F600.0
sg15
I6
sg16
F400.0
sa(dp248
g6
I3
sg7
I500000
sg8
I10
sg9
F3.81
sg10
F319.0
sg11
F-1.0
sg12
I10
sg13
F17.0
sg14
F560.0000000000001
sg15
I5
sg16
F400.0
sa(dp249
g6
I0
sg7
I500000
sg8
I10
sg9
F3.44
sg10
F724.0
sg11
F0.1
sg12
I10
sg13
F9.0
sg14
F560.0000000000001
sg15
I5
sg16
F400.0
sa(dp250
g6
I3
sg7
I500000
sg8
I10
sg9
F4.19
sg10
F533.0
sg11
F-1.0
sg12
I10
sg13
F16.0
sg14
F520.0000000000001
sg15
I4
sg16
F400.0
sa(dp251
g6
I0
sg7
I500000
sg8
I10
sg9
F4.29
sg10
F863.0
sg11
F-1.0
sg12
I10
sg13
F16.0
sg14
F520.0000000000001
sg15
I4
sg16
F400.0
sa(dp252
g6
I3
sg7
I500000
sg8
I10
sg9
F4.29
sg10
F814.0
sg11
F-1.0
sg12
I10
sg13
F17.0
sg14
F480.0
sg15
I3
sg16
F400.0
sa(dp253
g6
I0
sg7
I500000
sg8
I10
sg9
F4.32
sg10
F868.0
sg11
F0.1
sg12
I10
sg13
F16.0
sg14
F480.0
sg15
I3
sg16
F400.0
sa(dp254
g6
I3
sg7
I500000
sg8
I10
sg9
F4.11
sg10
F524.0
sg11
F-1.0
sg12
I10
sg13
F16.0
sg14
F440.0
sg15
I2
sg16
F400.0
sa(dp255
g6
I0
sg7
I500000
sg8
I10
sg9
F4.16
sg10
F468.0
sg11
F0.5
sg12
I10
sg13
F16.0
sg14
F440.0
sg15
I2
sg16
F400.0
sa(dp256
g6
I3
sg7
I500000
sg8
I10
sg9
F-1.0
sg10
F-1.0
sg11
F-1.0
sg12
I10
sg13
F-1.0
sg14
F640.0
sg15
I7
sg16
F400.0
sa(dp257
g6
I0
sg7
I500000
sg8
I10
sg9
F4.36
sg10
F869.0
sg11
F-1.0
sg12
I10
sg13
F9.0
sg14
F640.0
sg15
I7
sg16
F400.0
sa(dp258
g6
I3
sg7
I500000
sg8
I10
sg9
F4.36
sg10
F692.0
sg11
F-1.0
sg12
I10
sg13
F9.0
sg14
F600.0
sg15
I6
sg16
F400.0
sa(dp259
g6
I0
sg7
I500000
sg8
I10
sg9
F4.36
sg10
F611.0
sg11
F0.3
sg12
I10
sg13
F9.0
sg14
F600.0
sg15
I6
sg16
F400.0
sa(dp260
g6
I3
sg7
I500000
sg8
I10
sg9
F-1.0
sg10
F-1.0
sg11
F-1.0
sg12
I10
sg13
F-1.0
sg14
F560.0000000000001
sg15
I5
sg16
F400.0
sa(dp261
g6
I0
sg7
I500000
sg8
I10
sg9
F4.24
sg10
F880.0
sg11
F-1.0
sg12
I10
sg13
F9.0
sg14
F560.0000000000001
sg15
I5
sg16
F400.0
sa(dp262
g6
I3
sg7
I500000
sg8
I10
sg9
F3.56
sg10
F632.0
sg11
F-1.0
sg12
I10
sg13
F37.0
sg14
F520.0000000000001
sg15
I4
sg16
F400.0
sa(dp263
g6
I0
sg7
I500000
sg8
I10
sg9
F4.22
sg10
F656.0
sg11
F-1.0
sg12
I10
sg13
F16.0
sg14
F520.0000000000001
sg15
I4
sg16
F400.0
sa(dp264
g6
I3
sg7
I500000
sg8
I10
sg9
F3.4
sg10
F690.0
sg11
F-1.0
sg12
I10
sg13
F15.0
sg14
F480.0
sg15
I3
sg16
F400.0
sa(dp265
g6
I0
sg7
I500000
sg8
I10
sg9
F4.57
sg10
F663.0
sg11
F0.1
sg12
I10
sg13
F17.0
sg14
F480.0
sg15
I3
sg16
F400.0
sa(dp266
g6
I3
sg7
I500000
sg8
I10
sg9
F-1.0
sg10
F-1.0
sg11
F-1.0
sg12
I10
sg13
F-1.0
sg14
F440.0
sg15
I2
sg16
F400.0
sa(dp267
g6
I0
sg7
I500000
sg8
I10
sg9
F4.22
sg10
F615.0
sg11
F0.4
sg12
I10
sg13
F16.0
sg14
F440.0
sg15
I2
sg16
F400.0
sa(dp268
g6
I3
sg7
I500000
sg8
I10
sg9
F4.95
sg10
F824.0
sg11
F-1.0
sg12
I10
sg13
F23.0
sg14
F640.0
sg15
I7
sg16
F400.0
sa(dp269
g6
I0
sg7
I500000
sg8
I10
sg9
F3.05
sg10
F663.0
sg11
F-1.0
sg12
I10
sg13
F9.0
sg14
F640.0
sg15
I7
sg16
F400.0
sa(dp270
g6
I3
sg7
I500000
sg8
I10
sg9
F4.26
sg10
F953.0
sg11
F-1.0
sg12
I10
sg13
F9.0
sg14
F600.0
sg15
I6
sg16
F400.0
sa(dp271
g6
I0
sg7
I500000
sg8
I10
sg9
F6.03
sg10
F759.0
sg11
F-1.0
sg12
I10
sg13
F9.0
sg14
F600.0
sg15
I6
sg16
F400.0
sa(dp272
g6
I3
sg7
I500000
sg8
I10
sg9
F4.69
sg10
F711.0
sg11
F-1.0
sg12
I10
sg13
F32.0
sg14
F560.0000000000001
sg15
I5
sg16
F400.0
sa(dp273
g6
I0
sg7
I500000
sg8
I10
sg9
F4.24
sg10
F570.0
sg11
F-1.0
sg12
I10
sg13
F8.0
sg14
F560.0000000000001
sg15
I5
sg16
F400.0
sa(dp274
g6
I3
sg7
I500000
sg8
I10
sg9
F3.72
sg10
F534.0
sg11
F-1.0
sg12
I10
sg13
F9.0
sg14
F520.0000000000001
sg15
I4
sg16
F400.0
sa(dp275
g6
I0
sg7
I500000
sg8
I10
sg9
F4.34
sg10
F912.0
sg11
F0.1
sg12
I10
sg13
F9.0
sg14
F520.0000000000001
sg15
I4
sg16
F400.0
sa(dp276
g6
I3
sg7
I500000
sg8
I10
sg9
F3.84
sg10
F507.0
sg11
F-1.0
sg12
I10
sg13
F17.0
sg14
F480.0
sg15
I3
sg16
F400.0
sa(dp277
g6
I0
sg7
I500000
sg8
I10
sg9
F5.86
sg10
F606.0
sg11
F0.1
sg12
I10
sg13
F9.0
sg14
F480.0
sg15
I3
sg16
F400.0
sa(dp278
g6
I3
sg7
I500000
sg8
I10
sg9
F2.85
sg10
F784.0
sg11
F-1.0
sg12
I10
sg13
F9.0
sg14
F440.0
sg15
I2
sg16
F400.0
sa(dp279
g6
I0
sg7
I500000
sg8
I10
sg9
F4.34
sg10
F689.0
sg11
F0.7
sg12
I10
sg13
F16.0
sg14
F440.0
sg15
I2
sg16
F400.0
sa(dp280
g6
I3
sg7
I500000
sg8
I10
sg9
F4.55
sg10
F856.0
sg11
F-1.0
sg12
I10
sg13
F22.0
sg14
F640.0
sg15
I7
sg16
F400.0
sa(dp281
g6
I0
sg7
I500000
sg8
I10
sg9
F4.05
sg10
F634.0
sg11
F-1.0
sg12
I10
sg13
F9.0
sg14
F640.0
sg15
I7
sg16
F400.0
sa(dp282
g6
I3
sg7
I500000
sg8
I10
sg9
F4.17
sg10
F753.0
sg11
F-1.0
sg12
I10
sg13
F22.0
sg14
F600.0
sg15
I6
sg16
F400.0
sa(dp283
g6
I0
sg7
I500000
sg8
I10
sg9
F3.7
sg10
F841.0
sg11
F-1.0
sg12
I10
sg13
F9.0
sg14
F600.0
sg15
I6
sg16
F400.0
sa(dp284
g6
I3
sg7
I500000
sg8
I10
sg9
F4.27
sg10
F740.0
sg11
F-1.0
sg12
I10
sg13
F38.0
sg14
F560.0000000000001
sg15
I5
sg16
F400.0
sa(dp285
g6
I0
sg7
I500000
sg8
I10
sg9
F4.61
sg10
F968.0
sg11
F0.2
sg12
I10
sg13
F9.0
sg14
F560.0000000000001
sg15
I5
sg16
F400.0
sa(dp286
g6
I3
sg7
I500000
sg8
I10
sg9
F3.58
sg10
F883.0
sg11
F-1.0
sg12
I10
sg13
F9.0
sg14
F520.0000000000001
sg15
I4
sg16
F400.0
sa(dp287
g6
I0
sg7
I500000
sg8
I10
sg9
F3.09
sg10
F801.0
sg11
F0.5
sg12
I10
sg13
F9.0
sg14
F520.0000000000001
sg15
I4
sg16
F400.0
sa(dp288
g6
I3
sg7
I500000
sg8
I10
sg9
F-1.0
sg10
F-1.0
sg11
F-1.0
sg12
I10
sg13
F-1.0
sg14
F480.0
sg15
I3
sg16
F400.0
sa(dp289
g6
I0
sg7
I500000
sg8
I10
sg9
F4.22
sg10
F708.0
sg11
F0.7
sg12
I10
sg13
F9.0
sg14
F480.0
sg15
I3
sg16
F400.0
sa(dp290
g6
I3
sg7
I500000
sg8
I10
sg9
F2.83
sg10
F423.0
sg11
F-1.0
sg12
I10
sg13
F8.0
sg14
F440.0
sg15
I2
sg16
F400.0
sa(dp291
g6
I0
sg7
I500000
sg8
I10
sg9
F4.31
sg10
F653.0
sg11
F0.1
sg12
I10
sg13
F9.0
sg14
F440.0
sg15
I2
sg16
F400.0
sa(dp292
g6
I3
sg7
I500000
sg8
I10
sg9
F4.35
sg10
F860.0
sg11
F-1.0
sg12
I10
sg13
F18.0
sg14
F640.0
sg15
I7
sg16
F400.0
sa(dp293
g6
I0
sg7
I500000
sg8
I10
sg9
F4.26
sg10
F870.0
sg11
F0.2
sg12
I10
sg13
F9.0
sg14
F640.0
sg15
I7
sg16
F400.0
sa(dp294
g6
I3
sg7
I500000
sg8
I10
sg9
F4.05
sg10
F614.0
sg11
F-1.0
sg12
I10
sg13
F9.0
sg14
F600.0
sg15
I6
sg16
F400.0
sa(dp295
g6
I0
sg7
I500000
sg8
I10
sg9
F4.3
sg10
F920.0
sg11
F-1.0
sg12
I10
sg13
F18.0
sg14
F600.0
sg15
I6
sg16
F400.0
sa(dp296
g6
I3
sg7
I500000
sg8
I10
sg9
F3.74
sg10
F665.0
sg11
F-1.0
sg12
I10
sg13
F16.0
sg14
F560.0000000000001
sg15
I5
sg16
F400.0
sa(dp297
g6
I0
sg7
I500000
sg8
I10
sg9
F4.24
sg10
F940.0
sg11
F-1.0
sg12
I10
sg13
F17.0
sg14
F560.0000000000001
sg15
I5
sg16
F400.0
sa(dp298
g6
I3
sg7
I500000
sg8
I10
sg9
F4.29
sg10
F766.0
sg11
F-1.0
sg12
I10
sg13
F17.0
sg14
F520.0000000000001
sg15
I4
sg16
F400.0
sa(dp299
g6
I0
sg7
I500000
sg8
I10
sg9
F4.36
sg10
F992.0
sg11
F0.8
sg12
I10
sg13
F9.0
sg14
F520.0000000000001
sg15
I4
sg16
F400.0
sa(dp300
g6
I3
sg7
I500000
sg8
I10
sg9
F4.16
sg10
F687.0
sg11
F-1.0
sg12
I10
sg13
F9.0
sg14
F480.0
sg15
I3
sg16
F400.0
sa(dp301
g6
I0
sg7
I500000
sg8
I10
sg9
F4.36
sg10
F784.0
sg11
F0.1
sg12
I10
sg13
F16.0
sg14
F480.0
sg15
I3
sg16
F400.0
sa(dp302
g6
I3
sg7
I500000
sg8
I10
sg9
F-1.0
sg10
F-1.0
sg11
F-1.0
sg12
I10
sg13
F-1.0
sg14
F440.0
sg15
I2
sg16
F400.0
sa(dp303
g6
I0
sg7
I500000
sg8
I10
sg9
F4.32
sg10
F778.0
sg11
F0.5
sg12
I10
sg13
F16.0
sg14
F440.0
sg15
I2
sg16
F400.0
sa(dp304
g6
I3
sg7
I500000
sg8
I10
sg9
F4.18
sg10
F739.0
sg11
F-1.0
sg12
I10
sg13
F17.0
sg14
F640.0
sg15
I7
sg16
F400.0
sa(dp305
g6
I0
sg7
I500000
sg8
I10
sg9
F4.36
sg10
F984.0
sg11
F-1.0
sg12
I10
sg13
F18.0
sg14
F640.0
sg15
I7
sg16
F400.0
sa(dp306
g6
I3
sg7
I500000
sg8
I10
sg9
F4.03
sg10
F808.0
sg11
F-1.0
sg12
I10
sg13
F17.0
sg14
F600.0
sg15
I6
sg16
F400.0
sa(dp307
g6
I0
sg7
I500000
sg8
I10
sg9
F4.23
sg10
F679.0
sg11
F-1.0
sg12
I10
sg13
F8.0
sg14
F600.0
sg15
I6
sg16
F400.0
sa(dp308
g6
I3
sg7
I500000
sg8
I10
sg9
F4.05
sg10
F732.0
sg11
F-1.0
sg12
I10
sg13
F9.0
sg14
F560.0000000000001
sg15
I5
sg16
F400.0
sa(dp309
g6
I0
sg7
I500000
sg8
I10
sg9
F4.19
sg10
F831.0
sg11
F0.4
sg12
I10
sg13
F17.0
sg14
F560.0000000000001
sg15
I5
sg16
F400.0
sa(dp310
g6
I3
sg7
I500000
sg8
I10
sg9
F4.31
sg10
F623.0
sg11
F-1.0
sg12
I10
sg13
F16.0
sg14
F520.0000000000001
sg15
I4
sg16
F400.0
sa(dp311
g6
I0
sg7
I500000
sg8
I10
sg9
F4.2
sg10
F737.0
sg11
F0.1
sg12
I10
sg13
F23.0
sg14
F520.0000000000001
sg15
I4
sg16
F400.0
sa(dp312
g6
I3
sg7
I500000
sg8
I10
sg9
F4.26
sg10
F442.0
sg11
F-1.0
sg12
I10
sg13
F17.0
sg14
F480.0
sg15
I3
sg16
F400.0
sa(dp313
g6
I0
sg7
I500000
sg8
I10
sg9
F4.31
sg10
F776.0
sg11
F0.1
sg12
I10
sg13
F9.0
sg14
F480.0
sg15
I3
sg16
F400.0
sa(dp314
g6
I3
sg7
I500000
sg8
I10
sg9
F-1.0
sg10
F-1.0
sg11
F-1.0
sg12
I10
sg13
F-1.0
sg14
F440.0
sg15
I2
sg16
F400.0
sa(dp315
g6
I0
sg7
I500000
sg8
I10
sg9
F4.27
sg10
F917.0
sg11
F0.3
sg12
I10
sg13
F9.0
sg14
F440.0
sg15
I2
sg16
F400.0
saa.