(dp0
I4
F3762.205481529236
sI8
F4824.901461601257
sI12
F6246.310591697693
sI16
F7857.810020446777
sI20
F9704.22649383545
sI24
F11623.628973960876
sI28
F14715.152978897095
sI32
F16428.229451179504
sI36
F18754.039525985718
sI40
F22305.951476097107
sI44
F24410.08698940277
sI48
F27644.114017486572
sI52
F31681.612014770508
sI56
F35482.9865694046
sI60
F39098.48403930664
sI64
F43345.95501422882
sI68
F47499.95744228363
sI72
F52413.87498378754
sI76
F57928.34198474884
sI80
F62883.14354419708
sI84
F68509.44745540619
sI88
F76111.75549030304
sI92
F81185.80460548401
sI96
F85728.95240783691
s.