(dp0
I4
F433.56800079345703
sI8
F612.6630306243896
sI12
F797.6469993591309
sI16
F898.5071182250977
sI20
F1106.8949699401855
sI24
F1308.3860874176025
sI28
F1627.8162002563477
sI32
F1853.1770706176758
sI36
F2104.299783706665
sI40
F2428.9021492004395
sI44
F2735.5878353118896
sI48
F3065.458059310913
sI52
F3502.3350715637207
sI56
F3848.9058017730713
sI60
F4257.481813430786
sI64
F4705.813884735107
sI68
F5119.8248863220215
sI72
F5612.2400760650635
sI76
F6041.656017303467
sI80
F6647.212028503418
sI84
F7388.0369663238525
sI88
F7819.627046585083
sI92
F8291.186094284058
sI96
F9047.187805175781
s.