(dp0
I65
F76711.09104156494
sI35
F12613.839864730835
sI100
F275523.4839916229
sI5
F62.150001525878906
sI70
F95971.99201583862
sI40
F18538.51318359375
sI10
F370.2120780944824
sI75
F117293.4730052948
sI45
F26056.612014770508
sI15
F1147.5310325622559
sI80
F142747.6990222931
sI50
F35512.75110244751
sI20
F2530.3750038146973
sI85
F171191.21313095093
sI55
F47015.937089920044
sI25
F4784.024953842163
sI90
F200532.12714195251
sI60
F60795.95112800598
sI30
F8062.172889709473
sI95
F237360.0640296936
s.